ARM GAS  C:\Users\RYANKE~1\AppData\Local\Temp\ccXMu97e.s 			page 1


   1              		.syntax unified
   2              		.cpu cortex-m3
   3              		.fpu softvfp
   4              		.eabi_attribute 20, 1
   5              		.eabi_attribute 21, 1
   6              		.eabi_attribute 23, 3
   7              		.eabi_attribute 24, 1
   8              		.eabi_attribute 25, 1
   9              		.eabi_attribute 26, 1
  10              		.eabi_attribute 30, 1
  11              		.eabi_attribute 34, 1
  12              		.eabi_attribute 18, 4
  13              		.thumb
  14              		.file	"cyfitter_cfg.c"
  15              		.text
  16              	.Ltext0:
  17              		.cfi_sections	.debug_frame
  18              		.section	.text.CyClockStartupError,"ax",%progbits
  19              		.align	2
  20              		.thumb
  21              		.thumb_func
  22              		.type	CyClockStartupError, %function
  23              	CyClockStartupError:
  24              	.LFB3:
  25              		.file 1 "Generated_Source\\PSoC5\\cyfitter_cfg.c"
   1:Generated_Source\PSoC5/cyfitter_cfg.c **** /*******************************************************************************
   2:Generated_Source\PSoC5/cyfitter_cfg.c **** * File Name: cyfitter_cfg.c
   3:Generated_Source\PSoC5/cyfitter_cfg.c **** * 
   4:Generated_Source\PSoC5/cyfitter_cfg.c **** * PSoC Creator  4.0 Update 1
   5:Generated_Source\PSoC5/cyfitter_cfg.c **** *
   6:Generated_Source\PSoC5/cyfitter_cfg.c **** * Description:
   7:Generated_Source\PSoC5/cyfitter_cfg.c **** * This file contains device initialization code.
   8:Generated_Source\PSoC5/cyfitter_cfg.c **** * Except for the user defined sections in CyClockStartupError(), this file should not be modified.
   9:Generated_Source\PSoC5/cyfitter_cfg.c **** * This file is automatically generated by PSoC Creator.
  10:Generated_Source\PSoC5/cyfitter_cfg.c **** *
  11:Generated_Source\PSoC5/cyfitter_cfg.c **** ********************************************************************************
  12:Generated_Source\PSoC5/cyfitter_cfg.c **** * Copyright (c) 2007-2016 Cypress Semiconductor.  All rights reserved.
  13:Generated_Source\PSoC5/cyfitter_cfg.c **** * You may use this file only in accordance with the license, terms, conditions, 
  14:Generated_Source\PSoC5/cyfitter_cfg.c **** * disclaimers, and limitations in the end user license agreement accompanying 
  15:Generated_Source\PSoC5/cyfitter_cfg.c **** * the software package with which this file was provided.
  16:Generated_Source\PSoC5/cyfitter_cfg.c **** ********************************************************************************/
  17:Generated_Source\PSoC5/cyfitter_cfg.c **** 
  18:Generated_Source\PSoC5/cyfitter_cfg.c **** #include <string.h>
  19:Generated_Source\PSoC5/cyfitter_cfg.c **** #include "cytypes.h"
  20:Generated_Source\PSoC5/cyfitter_cfg.c **** #include "cydevice_trm.h"
  21:Generated_Source\PSoC5/cyfitter_cfg.c **** #include "cyfitter.h"
  22:Generated_Source\PSoC5/cyfitter_cfg.c **** #include "CyLib.h"
  23:Generated_Source\PSoC5/cyfitter_cfg.c **** #include "cyfitter_cfg.h"
  24:Generated_Source\PSoC5/cyfitter_cfg.c **** 
  25:Generated_Source\PSoC5/cyfitter_cfg.c **** #define CY_NEED_CYCLOCKSTARTUPERROR 1
  26:Generated_Source\PSoC5/cyfitter_cfg.c **** 
  27:Generated_Source\PSoC5/cyfitter_cfg.c **** 
  28:Generated_Source\PSoC5/cyfitter_cfg.c **** #if defined(__GNUC__) || defined(__ARMCC_VERSION)
  29:Generated_Source\PSoC5/cyfitter_cfg.c ****     #define CYPACKED 
  30:Generated_Source\PSoC5/cyfitter_cfg.c ****     #define CYPACKED_ATTR __attribute__ ((packed))
  31:Generated_Source\PSoC5/cyfitter_cfg.c ****     #define CYALIGNED __attribute__ ((aligned))
  32:Generated_Source\PSoC5/cyfitter_cfg.c ****     #define CY_CFG_UNUSED __attribute__ ((unused))
ARM GAS  C:\Users\RYANKE~1\AppData\Local\Temp\ccXMu97e.s 			page 2


  33:Generated_Source\PSoC5/cyfitter_cfg.c ****     #ifndef CY_CFG_SECTION
  34:Generated_Source\PSoC5/cyfitter_cfg.c ****         #define CY_CFG_SECTION __attribute__ ((section(".psocinit")))
  35:Generated_Source\PSoC5/cyfitter_cfg.c ****     #endif
  36:Generated_Source\PSoC5/cyfitter_cfg.c ****     
  37:Generated_Source\PSoC5/cyfitter_cfg.c ****     #if defined(__ARMCC_VERSION)
  38:Generated_Source\PSoC5/cyfitter_cfg.c ****         #define CY_CFG_MEMORY_BARRIER() __memory_changed()
  39:Generated_Source\PSoC5/cyfitter_cfg.c ****     #else
  40:Generated_Source\PSoC5/cyfitter_cfg.c ****         #define CY_CFG_MEMORY_BARRIER() __sync_synchronize()
  41:Generated_Source\PSoC5/cyfitter_cfg.c ****     #endif
  42:Generated_Source\PSoC5/cyfitter_cfg.c ****     
  43:Generated_Source\PSoC5/cyfitter_cfg.c **** #elif defined(__ICCARM__)
  44:Generated_Source\PSoC5/cyfitter_cfg.c ****     #include <intrinsics.h>
  45:Generated_Source\PSoC5/cyfitter_cfg.c **** 
  46:Generated_Source\PSoC5/cyfitter_cfg.c ****     #define CYPACKED __packed
  47:Generated_Source\PSoC5/cyfitter_cfg.c ****     #define CYPACKED_ATTR 
  48:Generated_Source\PSoC5/cyfitter_cfg.c ****     #define CYALIGNED _Pragma("data_alignment=4")
  49:Generated_Source\PSoC5/cyfitter_cfg.c ****     #define CY_CFG_UNUSED _Pragma("diag_suppress=Pe177")
  50:Generated_Source\PSoC5/cyfitter_cfg.c ****     #define CY_CFG_SECTION _Pragma("location=\".psocinit\"")
  51:Generated_Source\PSoC5/cyfitter_cfg.c ****     
  52:Generated_Source\PSoC5/cyfitter_cfg.c ****     #define CY_CFG_MEMORY_BARRIER() __DMB()
  53:Generated_Source\PSoC5/cyfitter_cfg.c ****     
  54:Generated_Source\PSoC5/cyfitter_cfg.c **** #else
  55:Generated_Source\PSoC5/cyfitter_cfg.c ****     #error Unsupported toolchain
  56:Generated_Source\PSoC5/cyfitter_cfg.c **** #endif
  57:Generated_Source\PSoC5/cyfitter_cfg.c **** 
  58:Generated_Source\PSoC5/cyfitter_cfg.c **** 
  59:Generated_Source\PSoC5/cyfitter_cfg.c **** CY_CFG_UNUSED
  60:Generated_Source\PSoC5/cyfitter_cfg.c **** static void CYMEMZERO(void *s, size_t n);
  61:Generated_Source\PSoC5/cyfitter_cfg.c **** CY_CFG_UNUSED
  62:Generated_Source\PSoC5/cyfitter_cfg.c **** static void CYMEMZERO(void *s, size_t n)
  63:Generated_Source\PSoC5/cyfitter_cfg.c **** {
  64:Generated_Source\PSoC5/cyfitter_cfg.c **** 	(void)memset(s, 0, n);
  65:Generated_Source\PSoC5/cyfitter_cfg.c **** }
  66:Generated_Source\PSoC5/cyfitter_cfg.c **** CY_CFG_UNUSED
  67:Generated_Source\PSoC5/cyfitter_cfg.c **** static void CYCONFIGCPY(void *dest, const void *src, size_t n);
  68:Generated_Source\PSoC5/cyfitter_cfg.c **** CY_CFG_UNUSED
  69:Generated_Source\PSoC5/cyfitter_cfg.c **** static void CYCONFIGCPY(void *dest, const void *src, size_t n)
  70:Generated_Source\PSoC5/cyfitter_cfg.c **** {
  71:Generated_Source\PSoC5/cyfitter_cfg.c **** 	(void)memcpy(dest, src, n);
  72:Generated_Source\PSoC5/cyfitter_cfg.c **** }
  73:Generated_Source\PSoC5/cyfitter_cfg.c **** CY_CFG_UNUSED
  74:Generated_Source\PSoC5/cyfitter_cfg.c **** static void CYCONFIGCPYCODE(void *dest, const void *src, size_t n);
  75:Generated_Source\PSoC5/cyfitter_cfg.c **** CY_CFG_UNUSED
  76:Generated_Source\PSoC5/cyfitter_cfg.c **** static void CYCONFIGCPYCODE(void *dest, const void *src, size_t n)
  77:Generated_Source\PSoC5/cyfitter_cfg.c **** {
  78:Generated_Source\PSoC5/cyfitter_cfg.c **** 	(void)memcpy(dest, src, n);
  79:Generated_Source\PSoC5/cyfitter_cfg.c **** }
  80:Generated_Source\PSoC5/cyfitter_cfg.c **** 
  81:Generated_Source\PSoC5/cyfitter_cfg.c **** 
  82:Generated_Source\PSoC5/cyfitter_cfg.c **** 
  83:Generated_Source\PSoC5/cyfitter_cfg.c **** 
  84:Generated_Source\PSoC5/cyfitter_cfg.c **** /* Clock startup error codes                                                   */
  85:Generated_Source\PSoC5/cyfitter_cfg.c **** #define CYCLOCKSTART_NO_ERROR    0u
  86:Generated_Source\PSoC5/cyfitter_cfg.c **** #define CYCLOCKSTART_XTAL_ERROR  1u
  87:Generated_Source\PSoC5/cyfitter_cfg.c **** #define CYCLOCKSTART_32KHZ_ERROR 2u
  88:Generated_Source\PSoC5/cyfitter_cfg.c **** #define CYCLOCKSTART_PLL_ERROR   3u
  89:Generated_Source\PSoC5/cyfitter_cfg.c **** 
ARM GAS  C:\Users\RYANKE~1\AppData\Local\Temp\ccXMu97e.s 			page 3


  90:Generated_Source\PSoC5/cyfitter_cfg.c **** 
  91:Generated_Source\PSoC5/cyfitter_cfg.c **** #ifdef CY_NEED_CYCLOCKSTARTUPERROR
  92:Generated_Source\PSoC5/cyfitter_cfg.c **** /*******************************************************************************
  93:Generated_Source\PSoC5/cyfitter_cfg.c **** * Function Name: CyClockStartupError
  94:Generated_Source\PSoC5/cyfitter_cfg.c **** ********************************************************************************
  95:Generated_Source\PSoC5/cyfitter_cfg.c **** * Summary:
  96:Generated_Source\PSoC5/cyfitter_cfg.c **** *  If an error is encountered during clock configuration (crystal startup error,
  97:Generated_Source\PSoC5/cyfitter_cfg.c **** *  PLL lock error, etc.), the system will end up here.  Unless reimplemented by
  98:Generated_Source\PSoC5/cyfitter_cfg.c **** *  the customer, this function will stop in an infinite loop.
  99:Generated_Source\PSoC5/cyfitter_cfg.c **** *
 100:Generated_Source\PSoC5/cyfitter_cfg.c **** * Parameters:
 101:Generated_Source\PSoC5/cyfitter_cfg.c **** *   void
 102:Generated_Source\PSoC5/cyfitter_cfg.c **** *
 103:Generated_Source\PSoC5/cyfitter_cfg.c **** * Return:
 104:Generated_Source\PSoC5/cyfitter_cfg.c **** *   void
 105:Generated_Source\PSoC5/cyfitter_cfg.c **** *
 106:Generated_Source\PSoC5/cyfitter_cfg.c **** *******************************************************************************/
 107:Generated_Source\PSoC5/cyfitter_cfg.c **** CY_CFG_UNUSED
 108:Generated_Source\PSoC5/cyfitter_cfg.c **** static void CyClockStartupError(uint8 errorCode);
 109:Generated_Source\PSoC5/cyfitter_cfg.c **** CY_CFG_UNUSED
 110:Generated_Source\PSoC5/cyfitter_cfg.c **** static void CyClockStartupError(uint8 errorCode)
 111:Generated_Source\PSoC5/cyfitter_cfg.c **** {
  26              		.loc 1 111 0
  27              		.cfi_startproc
  28              		@ Volatile: function does not return.
  29              		@ args = 0, pretend = 0, frame = 0
  30              		@ frame_needed = 0, uses_anonymous_args = 0
  31              		@ link register save eliminated.
  32              	.LVL0:
  33              	.L2:
 112:Generated_Source\PSoC5/cyfitter_cfg.c ****     /* To remove the compiler warning if errorCode not used.                */
 113:Generated_Source\PSoC5/cyfitter_cfg.c ****     errorCode = errorCode;
 114:Generated_Source\PSoC5/cyfitter_cfg.c **** 
 115:Generated_Source\PSoC5/cyfitter_cfg.c ****     /* If we have a clock startup error (bad MHz crystal, PLL lock, etc.),  */
 116:Generated_Source\PSoC5/cyfitter_cfg.c ****     /* we will end up here to allow the customer to implement something to  */
 117:Generated_Source\PSoC5/cyfitter_cfg.c ****     /* deal with the clock condition.                                       */
 118:Generated_Source\PSoC5/cyfitter_cfg.c **** 
 119:Generated_Source\PSoC5/cyfitter_cfg.c **** #ifdef CY_CFG_CLOCK_STARTUP_ERROR_CALLBACK
 120:Generated_Source\PSoC5/cyfitter_cfg.c **** 	CY_CFG_Clock_Startup_ErrorCallback();
 121:Generated_Source\PSoC5/cyfitter_cfg.c **** #else
 122:Generated_Source\PSoC5/cyfitter_cfg.c **** 	/*  If not using CY_CFG_CLOCK_STARTUP_ERROR_CALLBACK, place your clock startup code here. */
 123:Generated_Source\PSoC5/cyfitter_cfg.c ****     /* `#START CyClockStartupError` */
 124:Generated_Source\PSoC5/cyfitter_cfg.c **** 
 125:Generated_Source\PSoC5/cyfitter_cfg.c **** 
 126:Generated_Source\PSoC5/cyfitter_cfg.c **** 
 127:Generated_Source\PSoC5/cyfitter_cfg.c ****     /* `#END` */
 128:Generated_Source\PSoC5/cyfitter_cfg.c **** 
 129:Generated_Source\PSoC5/cyfitter_cfg.c ****     /* If nothing else, stop here since the clocks have not started         */
 130:Generated_Source\PSoC5/cyfitter_cfg.c ****     /* correctly.                                                           */
 131:Generated_Source\PSoC5/cyfitter_cfg.c ****     while(1) {}
  34              		.loc 1 131 0 discriminator 1
  35 0000 FEE7     		b	.L2
  36              		.cfi_endproc
  37              	.LFE3:
  38              		.size	CyClockStartupError, .-CyClockStartupError
  39 0002 00BF     		.section	.text.cfg_write_bytes32,"ax",%progbits
  40              		.align	2
ARM GAS  C:\Users\RYANKE~1\AppData\Local\Temp\ccXMu97e.s 			page 4


  41              		.thumb
  42              		.thumb_func
  43              		.type	cfg_write_bytes32, %function
  44              	cfg_write_bytes32:
  45              	.LFB4:
 132:Generated_Source\PSoC5/cyfitter_cfg.c **** #endif /* CY_CFG_CLOCK_STARTUP_ERROR_CALLBACK */ 
 133:Generated_Source\PSoC5/cyfitter_cfg.c **** }
 134:Generated_Source\PSoC5/cyfitter_cfg.c **** #endif
 135:Generated_Source\PSoC5/cyfitter_cfg.c **** 
 136:Generated_Source\PSoC5/cyfitter_cfg.c **** #define CY_CFG_BASE_ADDR_COUNT 18u
 137:Generated_Source\PSoC5/cyfitter_cfg.c **** CYPACKED typedef struct
 138:Generated_Source\PSoC5/cyfitter_cfg.c **** {
 139:Generated_Source\PSoC5/cyfitter_cfg.c **** 	uint8 offset;
 140:Generated_Source\PSoC5/cyfitter_cfg.c **** 	uint8 value;
 141:Generated_Source\PSoC5/cyfitter_cfg.c **** } CYPACKED_ATTR cy_cfg_addrvalue_t;
 142:Generated_Source\PSoC5/cyfitter_cfg.c **** 
 143:Generated_Source\PSoC5/cyfitter_cfg.c **** 
 144:Generated_Source\PSoC5/cyfitter_cfg.c **** 
 145:Generated_Source\PSoC5/cyfitter_cfg.c **** /*******************************************************************************
 146:Generated_Source\PSoC5/cyfitter_cfg.c **** * Function Name: cfg_write_bytes32
 147:Generated_Source\PSoC5/cyfitter_cfg.c **** ********************************************************************************
 148:Generated_Source\PSoC5/cyfitter_cfg.c **** * Summary:
 149:Generated_Source\PSoC5/cyfitter_cfg.c **** *  This function is used for setting up the chip configuration areas that
 150:Generated_Source\PSoC5/cyfitter_cfg.c **** *  contain relatively sparse data.
 151:Generated_Source\PSoC5/cyfitter_cfg.c **** *
 152:Generated_Source\PSoC5/cyfitter_cfg.c **** * Parameters:
 153:Generated_Source\PSoC5/cyfitter_cfg.c **** *   void
 154:Generated_Source\PSoC5/cyfitter_cfg.c **** *
 155:Generated_Source\PSoC5/cyfitter_cfg.c **** * Return:
 156:Generated_Source\PSoC5/cyfitter_cfg.c **** *   void
 157:Generated_Source\PSoC5/cyfitter_cfg.c **** *
 158:Generated_Source\PSoC5/cyfitter_cfg.c **** *******************************************************************************/
 159:Generated_Source\PSoC5/cyfitter_cfg.c **** static void cfg_write_bytes32(const uint32 addr_table[], const cy_cfg_addrvalue_t data_table[]);
 160:Generated_Source\PSoC5/cyfitter_cfg.c **** static void cfg_write_bytes32(const uint32 addr_table[], const cy_cfg_addrvalue_t data_table[])
 161:Generated_Source\PSoC5/cyfitter_cfg.c **** {
  46              		.loc 1 161 0
  47              		.cfi_startproc
  48              		@ args = 0, pretend = 0, frame = 0
  49              		@ frame_needed = 0, uses_anonymous_args = 0
  50              		@ link register save eliminated.
  51              	.LVL1:
  52 0000 F0B4     		push	{r4, r5, r6, r7}
  53              		.cfi_def_cfa_offset 16
  54              		.cfi_offset 4, -16
  55              		.cfi_offset 5, -12
  56              		.cfi_offset 6, -8
  57              		.cfi_offset 7, -4
  58              	.LVL2:
 162:Generated_Source\PSoC5/cyfitter_cfg.c **** 	/* For 32-bit little-endian architectures */
 163:Generated_Source\PSoC5/cyfitter_cfg.c **** 	uint32 i, j = 0u;
  59              		.loc 1 163 0
  60 0002 0022     		movs	r2, #0
 164:Generated_Source\PSoC5/cyfitter_cfg.c **** 	for (i = 0u; i < CY_CFG_BASE_ADDR_COUNT; i++)
  61              		.loc 1 164 0
  62 0004 1746     		mov	r7, r2
  63 0006 11E0     		b	.L4
  64              	.LVL3:
ARM GAS  C:\Users\RYANKE~1\AppData\Local\Temp\ccXMu97e.s 			page 5


  65              	.L7:
  66              	.LBB2:
 165:Generated_Source\PSoC5/cyfitter_cfg.c **** 	{
 166:Generated_Source\PSoC5/cyfitter_cfg.c **** 		uint32 baseAddr = addr_table[i];
  67              		.loc 1 166 0
  68 0008 50F82760 		ldr	r6, [r0, r7, lsl #2]
  69              	.LVL4:
 167:Generated_Source\PSoC5/cyfitter_cfg.c **** 		uint8 count = (uint8)baseAddr;
  70              		.loc 1 167 0
  71 000c F3B2     		uxtb	r3, r6
  72              	.LVL5:
 168:Generated_Source\PSoC5/cyfitter_cfg.c **** 		baseAddr &= 0xFFFFFF00u;
  73              		.loc 1 168 0
  74 000e 26F0FF06 		bic	r6, r6, #255
  75              	.LVL6:
 169:Generated_Source\PSoC5/cyfitter_cfg.c **** 		while (count != 0u)
  76              		.loc 1 169 0
  77 0012 08E0     		b	.L5
  78              	.L6:
 170:Generated_Source\PSoC5/cyfitter_cfg.c **** 		{
 171:Generated_Source\PSoC5/cyfitter_cfg.c **** 			CY_SET_XTND_REG8((void CYFAR *)(baseAddr + data_table[j].offset), data_table[j].value);
  79              		.loc 1 171 0
  80 0014 01EB4205 		add	r5, r1, r2, lsl #1
  81 0018 11F81240 		ldrb	r4, [r1, r2, lsl #1]	@ zero_extendqisi2
  82 001c 6D78     		ldrb	r5, [r5, #1]	@ zero_extendqisi2
  83 001e A555     		strb	r5, [r4, r6]
 172:Generated_Source\PSoC5/cyfitter_cfg.c **** 			j++;
  84              		.loc 1 172 0
  85 0020 0132     		adds	r2, r2, #1
  86              	.LVL7:
 173:Generated_Source\PSoC5/cyfitter_cfg.c **** 			count--;
  87              		.loc 1 173 0
  88 0022 013B     		subs	r3, r3, #1
  89              	.LVL8:
  90 0024 DBB2     		uxtb	r3, r3
  91              	.LVL9:
  92              	.L5:
 169:Generated_Source\PSoC5/cyfitter_cfg.c **** 		{
  93              		.loc 1 169 0
  94 0026 002B     		cmp	r3, #0
  95 0028 F4D1     		bne	.L6
  96              	.LBE2:
 164:Generated_Source\PSoC5/cyfitter_cfg.c **** 	{
  97              		.loc 1 164 0 discriminator 2
  98 002a 0137     		adds	r7, r7, #1
  99              	.LVL10:
 100              	.L4:
 164:Generated_Source\PSoC5/cyfitter_cfg.c **** 	{
 101              		.loc 1 164 0 is_stmt 0 discriminator 1
 102 002c 112F     		cmp	r7, #17
 103 002e EBD9     		bls	.L7
 174:Generated_Source\PSoC5/cyfitter_cfg.c **** 		}
 175:Generated_Source\PSoC5/cyfitter_cfg.c **** 	}
 176:Generated_Source\PSoC5/cyfitter_cfg.c **** }
 104              		.loc 1 176 0 is_stmt 1
 105 0030 F0BC     		pop	{r4, r5, r6, r7}
 106              		.cfi_restore 7
ARM GAS  C:\Users\RYANKE~1\AppData\Local\Temp\ccXMu97e.s 			page 6


 107              		.cfi_restore 6
 108              		.cfi_restore 5
 109              		.cfi_restore 4
 110              		.cfi_def_cfa_offset 0
 111              	.LVL11:
 112 0032 7047     		bx	lr
 113              		.cfi_endproc
 114              	.LFE4:
 115              		.size	cfg_write_bytes32, .-cfg_write_bytes32
 116              		.section	.text.AnalogSetDefault,"ax",%progbits
 117              		.align	2
 118              		.thumb
 119              		.thumb_func
 120              		.type	AnalogSetDefault, %function
 121              	AnalogSetDefault:
 122              	.LFB6:
 177:Generated_Source\PSoC5/cyfitter_cfg.c **** 
 178:Generated_Source\PSoC5/cyfitter_cfg.c **** /*******************************************************************************
 179:Generated_Source\PSoC5/cyfitter_cfg.c **** * Function Name: ClockSetup
 180:Generated_Source\PSoC5/cyfitter_cfg.c **** ********************************************************************************
 181:Generated_Source\PSoC5/cyfitter_cfg.c **** *
 182:Generated_Source\PSoC5/cyfitter_cfg.c **** * Summary:
 183:Generated_Source\PSoC5/cyfitter_cfg.c **** *  Performs the initialization of all of the clocks in the device based on the
 184:Generated_Source\PSoC5/cyfitter_cfg.c **** *  settings in the Clock tab of the DWR.  This includes enabling the requested
 185:Generated_Source\PSoC5/cyfitter_cfg.c **** *  clocks and setting the necessary dividers to produce the desired frequency. 
 186:Generated_Source\PSoC5/cyfitter_cfg.c **** *
 187:Generated_Source\PSoC5/cyfitter_cfg.c **** * Parameters:
 188:Generated_Source\PSoC5/cyfitter_cfg.c **** *  void
 189:Generated_Source\PSoC5/cyfitter_cfg.c **** *
 190:Generated_Source\PSoC5/cyfitter_cfg.c **** * Return:
 191:Generated_Source\PSoC5/cyfitter_cfg.c **** *  void
 192:Generated_Source\PSoC5/cyfitter_cfg.c **** *
 193:Generated_Source\PSoC5/cyfitter_cfg.c **** *******************************************************************************/
 194:Generated_Source\PSoC5/cyfitter_cfg.c **** static void ClockSetup(void);
 195:Generated_Source\PSoC5/cyfitter_cfg.c **** static void ClockSetup(void)
 196:Generated_Source\PSoC5/cyfitter_cfg.c **** {
 197:Generated_Source\PSoC5/cyfitter_cfg.c **** 	uint32 timeout;
 198:Generated_Source\PSoC5/cyfitter_cfg.c **** 	uint8 pllLock;
 199:Generated_Source\PSoC5/cyfitter_cfg.c **** 
 200:Generated_Source\PSoC5/cyfitter_cfg.c **** 
 201:Generated_Source\PSoC5/cyfitter_cfg.c **** 	/* Configure Digital Clocks based on settings from Clock DWR */
 202:Generated_Source\PSoC5/cyfitter_cfg.c **** 	CY_SET_XTND_REG16((void CYFAR *)(CYREG_CLKDIST_DCFG0_CFG0), 0x0019u);
 203:Generated_Source\PSoC5/cyfitter_cfg.c **** 	CY_SET_XTND_REG8((void CYFAR *)(CYREG_CLKDIST_DCFG0_CFG0 + 0x2u), 0x18u);
 204:Generated_Source\PSoC5/cyfitter_cfg.c **** 
 205:Generated_Source\PSoC5/cyfitter_cfg.c **** 	/* Configure ILO based on settings from Clock DWR */
 206:Generated_Source\PSoC5/cyfitter_cfg.c **** 	CY_SET_XTND_REG8((void CYFAR *)(CYREG_SLOWCLK_ILO_CR0), 0x02u);
 207:Generated_Source\PSoC5/cyfitter_cfg.c **** 	CY_SET_XTND_REG8((void CYFAR *)(CYREG_CLKDIST_CR), 0x08u);
 208:Generated_Source\PSoC5/cyfitter_cfg.c **** 
 209:Generated_Source\PSoC5/cyfitter_cfg.c **** 	/* Configure IMO based on settings from Clock DWR */
 210:Generated_Source\PSoC5/cyfitter_cfg.c **** 	CY_SET_XTND_REG8((void CYFAR *)(CYREG_FASTCLK_IMO_CR), 0x03u);
 211:Generated_Source\PSoC5/cyfitter_cfg.c **** 	CY_SET_XTND_REG8((void CYFAR *)(CYREG_IMO_TR1), (CY_GET_XTND_REG8((void CYFAR *)CYREG_FLSHID_CUST_
 212:Generated_Source\PSoC5/cyfitter_cfg.c **** 
 213:Generated_Source\PSoC5/cyfitter_cfg.c **** 	/* Configure PLL based on settings from Clock DWR */
 214:Generated_Source\PSoC5/cyfitter_cfg.c **** 	CY_SET_XTND_REG16((void CYFAR *)(CYREG_FASTCLK_PLL_P), 0x0008u);
 215:Generated_Source\PSoC5/cyfitter_cfg.c **** 	CY_SET_XTND_REG16((void CYFAR *)(CYREG_FASTCLK_PLL_CFG0), 0x1251u);
 216:Generated_Source\PSoC5/cyfitter_cfg.c **** 	/* Wait up to 250us for the PLL to lock */
 217:Generated_Source\PSoC5/cyfitter_cfg.c **** 	pllLock = 0u;
ARM GAS  C:\Users\RYANKE~1\AppData\Local\Temp\ccXMu97e.s 			page 7


 218:Generated_Source\PSoC5/cyfitter_cfg.c **** 	for (timeout = 250u / 10u; (timeout > 0u) && (pllLock != 0x03u); timeout--)
 219:Generated_Source\PSoC5/cyfitter_cfg.c **** 	{ 
 220:Generated_Source\PSoC5/cyfitter_cfg.c **** 		pllLock = 0x03u & ((uint8)((uint8)pllLock << 1) | ((CY_GET_XTND_REG8((void CYFAR *)CYREG_FASTCLK_
 221:Generated_Source\PSoC5/cyfitter_cfg.c **** 		CyDelayCycles(10u * 48u); /* Delay 10us based on 48MHz clock */
 222:Generated_Source\PSoC5/cyfitter_cfg.c **** 	}
 223:Generated_Source\PSoC5/cyfitter_cfg.c **** 	/* If we ran out of time the PLL didn't lock so go to the error function */
 224:Generated_Source\PSoC5/cyfitter_cfg.c **** 	if (timeout == 0u)
 225:Generated_Source\PSoC5/cyfitter_cfg.c **** 	{
 226:Generated_Source\PSoC5/cyfitter_cfg.c **** 		CyClockStartupError(CYCLOCKSTART_PLL_ERROR);
 227:Generated_Source\PSoC5/cyfitter_cfg.c **** 	}
 228:Generated_Source\PSoC5/cyfitter_cfg.c **** 
 229:Generated_Source\PSoC5/cyfitter_cfg.c **** 	/* Configure Bus/Master Clock based on settings from Clock DWR */
 230:Generated_Source\PSoC5/cyfitter_cfg.c **** 	CY_SET_XTND_REG16((void CYFAR *)(CYREG_CLKDIST_MSTR0), 0x0100u);
 231:Generated_Source\PSoC5/cyfitter_cfg.c **** 	CY_SET_XTND_REG8((void CYFAR *)(CYREG_CLKDIST_MSTR0), 0x07u);
 232:Generated_Source\PSoC5/cyfitter_cfg.c **** 	CY_SET_XTND_REG8((void CYFAR *)(CYREG_CLKDIST_BCFG0), 0x00u);
 233:Generated_Source\PSoC5/cyfitter_cfg.c **** 	CY_SET_XTND_REG8((void CYFAR *)(CYREG_CLKDIST_BCFG2), 0x48u);
 234:Generated_Source\PSoC5/cyfitter_cfg.c **** 	CY_SET_XTND_REG8((void CYFAR *)(CYREG_CLKDIST_MSTR0), 0x00u);
 235:Generated_Source\PSoC5/cyfitter_cfg.c **** 	CY_SET_XTND_REG8((void CYFAR *)(CYREG_CLKDIST_LD), 0x02u);
 236:Generated_Source\PSoC5/cyfitter_cfg.c **** 
 237:Generated_Source\PSoC5/cyfitter_cfg.c **** 	CY_SET_XTND_REG8((void CYFAR *)(CYREG_PM_ACT_CFG2), ((CY_GET_XTND_REG8((void CYFAR *)CYREG_PM_ACT_
 238:Generated_Source\PSoC5/cyfitter_cfg.c **** }
 239:Generated_Source\PSoC5/cyfitter_cfg.c **** 
 240:Generated_Source\PSoC5/cyfitter_cfg.c **** 
 241:Generated_Source\PSoC5/cyfitter_cfg.c **** /* Analog API Functions */
 242:Generated_Source\PSoC5/cyfitter_cfg.c **** 
 243:Generated_Source\PSoC5/cyfitter_cfg.c **** 
 244:Generated_Source\PSoC5/cyfitter_cfg.c **** /*******************************************************************************
 245:Generated_Source\PSoC5/cyfitter_cfg.c **** * Function Name: AnalogSetDefault
 246:Generated_Source\PSoC5/cyfitter_cfg.c **** ********************************************************************************
 247:Generated_Source\PSoC5/cyfitter_cfg.c **** *
 248:Generated_Source\PSoC5/cyfitter_cfg.c **** * Summary:
 249:Generated_Source\PSoC5/cyfitter_cfg.c **** *  Sets up the analog portions of the chip to default values based on chip
 250:Generated_Source\PSoC5/cyfitter_cfg.c **** *  configuration options from the project.
 251:Generated_Source\PSoC5/cyfitter_cfg.c **** *
 252:Generated_Source\PSoC5/cyfitter_cfg.c **** * Parameters:
 253:Generated_Source\PSoC5/cyfitter_cfg.c **** *  void
 254:Generated_Source\PSoC5/cyfitter_cfg.c **** *
 255:Generated_Source\PSoC5/cyfitter_cfg.c **** * Return:
 256:Generated_Source\PSoC5/cyfitter_cfg.c **** *  void
 257:Generated_Source\PSoC5/cyfitter_cfg.c **** *
 258:Generated_Source\PSoC5/cyfitter_cfg.c **** *******************************************************************************/
 259:Generated_Source\PSoC5/cyfitter_cfg.c **** static void AnalogSetDefault(void);
 260:Generated_Source\PSoC5/cyfitter_cfg.c **** static void AnalogSetDefault(void)
 261:Generated_Source\PSoC5/cyfitter_cfg.c **** {
 123              		.loc 1 261 0
 124              		.cfi_startproc
 125              		@ args = 0, pretend = 0, frame = 0
 126              		@ frame_needed = 0, uses_anonymous_args = 0
 127              		@ link register save eliminated.
 262:Generated_Source\PSoC5/cyfitter_cfg.c **** 	uint8 bg_xover_inl_trim = CY_GET_XTND_REG8((void CYFAR *)(CYREG_FLSHID_MFG_CFG_BG_XOVER_INL_TRIM +
 128              		.loc 1 262 0
 129 0000 064B     		ldr	r3, .L10
 130 0002 1B78     		ldrb	r3, [r3]	@ zero_extendqisi2
 131 0004 DBB2     		uxtb	r3, r3
 132              	.LVL12:
 263:Generated_Source\PSoC5/cyfitter_cfg.c **** 	CY_SET_XTND_REG8((void CYFAR *)(CYREG_BG_DFT0), (bg_xover_inl_trim & 0x07u));
 133              		.loc 1 263 0
ARM GAS  C:\Users\RYANKE~1\AppData\Local\Temp\ccXMu97e.s 			page 8


 134 0006 03F00701 		and	r1, r3, #7
 135 000a 054A     		ldr	r2, .L10+4
 136 000c 1170     		strb	r1, [r2]
 264:Generated_Source\PSoC5/cyfitter_cfg.c **** 	CY_SET_XTND_REG8((void CYFAR *)(CYREG_BG_DFT1), ((bg_xover_inl_trim >> 4) & 0x0Fu));
 137              		.loc 1 264 0
 138 000e 1B09     		lsrs	r3, r3, #4
 139              	.LVL13:
 140 0010 0132     		adds	r2, r2, #1
 141 0012 1370     		strb	r3, [r2]
 265:Generated_Source\PSoC5/cyfitter_cfg.c **** 	CY_SET_XTND_REG8((void CYFAR *)CYREG_PUMP_CR0, 0x44u);
 142              		.loc 1 265 0
 143 0014 4422     		movs	r2, #68
 144 0016 034B     		ldr	r3, .L10+8
 145 0018 1A70     		strb	r2, [r3]
 146 001a 7047     		bx	lr
 147              	.L11:
 148              		.align	2
 149              	.L10:
 150 001c CF010049 		.word	1224737231
 151 0020 6E580040 		.word	1073764462
 152 0024 76580040 		.word	1073764470
 153              		.cfi_endproc
 154              	.LFE6:
 155              		.size	AnalogSetDefault, .-AnalogSetDefault
 156              		.section	.text.CYMEMZERO,"ax",%progbits
 157              		.align	2
 158              		.thumb
 159              		.thumb_func
 160              		.type	CYMEMZERO, %function
 161              	CYMEMZERO:
 162              	.LFB0:
  63:Generated_Source\PSoC5/cyfitter_cfg.c **** 	(void)memset(s, 0, n);
 163              		.loc 1 63 0
 164              		.cfi_startproc
 165              		@ args = 0, pretend = 0, frame = 0
 166              		@ frame_needed = 0, uses_anonymous_args = 0
 167              	.LVL14:
 168 0000 08B5     		push	{r3, lr}
 169              		.cfi_def_cfa_offset 8
 170              		.cfi_offset 3, -8
 171              		.cfi_offset 14, -4
 172 0002 0A46     		mov	r2, r1
  64:Generated_Source\PSoC5/cyfitter_cfg.c **** }
 173              		.loc 1 64 0
 174 0004 0021     		movs	r1, #0
 175              	.LVL15:
 176 0006 FFF7FEFF 		bl	memset
 177              	.LVL16:
 178 000a 08BD     		pop	{r3, pc}
 179              		.cfi_endproc
 180              	.LFE0:
 181              		.size	CYMEMZERO, .-CYMEMZERO
 182              		.section	.text.CYCONFIGCPYCODE,"ax",%progbits
 183              		.align	2
 184              		.thumb
 185              		.thumb_func
 186              		.type	CYCONFIGCPYCODE, %function
ARM GAS  C:\Users\RYANKE~1\AppData\Local\Temp\ccXMu97e.s 			page 9


 187              	CYCONFIGCPYCODE:
 188              	.LFB2:
  77:Generated_Source\PSoC5/cyfitter_cfg.c **** 	(void)memcpy(dest, src, n);
 189              		.loc 1 77 0
 190              		.cfi_startproc
 191              		@ args = 0, pretend = 0, frame = 0
 192              		@ frame_needed = 0, uses_anonymous_args = 0
 193              	.LVL17:
 194 0000 08B5     		push	{r3, lr}
 195              		.cfi_def_cfa_offset 8
 196              		.cfi_offset 3, -8
 197              		.cfi_offset 14, -4
  78:Generated_Source\PSoC5/cyfitter_cfg.c **** }
 198              		.loc 1 78 0
 199 0002 FFF7FEFF 		bl	memcpy
 200              	.LVL18:
 201 0006 08BD     		pop	{r3, pc}
 202              		.cfi_endproc
 203              	.LFE2:
 204              		.size	CYCONFIGCPYCODE, .-CYCONFIGCPYCODE
 205              		.section	.text.CYCONFIGCPY,"ax",%progbits
 206              		.align	2
 207              		.thumb
 208              		.thumb_func
 209              		.type	CYCONFIGCPY, %function
 210              	CYCONFIGCPY:
 211              	.LFB1:
  70:Generated_Source\PSoC5/cyfitter_cfg.c **** 	(void)memcpy(dest, src, n);
 212              		.loc 1 70 0
 213              		.cfi_startproc
 214              		@ args = 0, pretend = 0, frame = 0
 215              		@ frame_needed = 0, uses_anonymous_args = 0
 216              	.LVL19:
 217 0000 08B5     		push	{r3, lr}
 218              		.cfi_def_cfa_offset 8
 219              		.cfi_offset 3, -8
 220              		.cfi_offset 14, -4
  71:Generated_Source\PSoC5/cyfitter_cfg.c **** }
 221              		.loc 1 71 0
 222 0002 FFF7FEFF 		bl	memcpy
 223              	.LVL20:
 224 0006 08BD     		pop	{r3, pc}
 225              		.cfi_endproc
 226              	.LFE1:
 227              		.size	CYCONFIGCPY, .-CYCONFIGCPY
 228              		.section	.text.ClockSetup,"ax",%progbits
 229              		.align	2
 230              		.thumb
 231              		.thumb_func
 232              		.type	ClockSetup, %function
 233              	ClockSetup:
 234              	.LFB5:
 196:Generated_Source\PSoC5/cyfitter_cfg.c **** 	uint32 timeout;
 235              		.loc 1 196 0
 236              		.cfi_startproc
 237              		@ args = 0, pretend = 0, frame = 0
 238              		@ frame_needed = 0, uses_anonymous_args = 0
ARM GAS  C:\Users\RYANKE~1\AppData\Local\Temp\ccXMu97e.s 			page 10


 239 0000 38B5     		push	{r3, r4, r5, lr}
 240              		.cfi_def_cfa_offset 16
 241              		.cfi_offset 3, -16
 242              		.cfi_offset 4, -12
 243              		.cfi_offset 5, -8
 244              		.cfi_offset 14, -4
 202:Generated_Source\PSoC5/cyfitter_cfg.c **** 	CY_SET_XTND_REG8((void CYFAR *)(CYREG_CLKDIST_DCFG0_CFG0 + 0x2u), 0x18u);
 245              		.loc 1 202 0
 246 0002 1925     		movs	r5, #25
 247 0004 234B     		ldr	r3, .L24
 248 0006 1D80     		strh	r5, [r3]	@ movhi
 203:Generated_Source\PSoC5/cyfitter_cfg.c **** 
 249              		.loc 1 203 0
 250 0008 1822     		movs	r2, #24
 251 000a 0233     		adds	r3, r3, #2
 252 000c 1A70     		strb	r2, [r3]
 206:Generated_Source\PSoC5/cyfitter_cfg.c **** 	CY_SET_XTND_REG8((void CYFAR *)(CYREG_CLKDIST_CR), 0x08u);
 253              		.loc 1 206 0
 254 000e 0222     		movs	r2, #2
 255 0010 03F27E23 		addw	r3, r3, #638
 256 0014 1A70     		strb	r2, [r3]
 207:Generated_Source\PSoC5/cyfitter_cfg.c **** 
 257              		.loc 1 207 0
 258 0016 0822     		movs	r2, #8
 259 0018 4FF04023 		mov	r3, #1073758208
 260 001c 1A70     		strb	r2, [r3]
 210:Generated_Source\PSoC5/cyfitter_cfg.c **** 	CY_SET_XTND_REG8((void CYFAR *)(CYREG_IMO_TR1), (CY_GET_XTND_REG8((void CYFAR *)CYREG_FLSHID_CUST_
 261              		.loc 1 210 0
 262 001e 0321     		movs	r1, #3
 263 0020 03F50073 		add	r3, r3, #512
 264 0024 1970     		strb	r1, [r3]
 211:Generated_Source\PSoC5/cyfitter_cfg.c **** 
 265              		.loc 1 211 0
 266 0026 1C4B     		ldr	r3, .L24+4
 267 0028 1B78     		ldrb	r3, [r3]	@ zero_extendqisi2
 268 002a DBB2     		uxtb	r3, r3
 269 002c 1B49     		ldr	r1, .L24+8
 270 002e 0B70     		strb	r3, [r1]
 214:Generated_Source\PSoC5/cyfitter_cfg.c **** 	CY_SET_XTND_REG16((void CYFAR *)(CYREG_FASTCLK_PLL_CFG0), 0x1251u);
 271              		.loc 1 214 0
 272 0030 1B4B     		ldr	r3, .L24+12
 273 0032 1A80     		strh	r2, [r3]	@ movhi
 215:Generated_Source\PSoC5/cyfitter_cfg.c **** 	/* Wait up to 250us for the PLL to lock */
 274              		.loc 1 215 0
 275 0034 41F25122 		movw	r2, #4689
 276 0038 023B     		subs	r3, r3, #2
 277 003a 1A80     		strh	r2, [r3]	@ movhi
 278              	.LVL21:
 217:Generated_Source\PSoC5/cyfitter_cfg.c **** 	for (timeout = 250u / 10u; (timeout > 0u) && (pllLock != 0x03u); timeout--)
 279              		.loc 1 217 0
 280 003c 0024     		movs	r4, #0
 218:Generated_Source\PSoC5/cyfitter_cfg.c **** 	{ 
 281              		.loc 1 218 0
 282 003e 0CE0     		b	.L19
 283              	.LVL22:
 284              	.L21:
 220:Generated_Source\PSoC5/cyfitter_cfg.c **** 		CyDelayCycles(10u * 48u); /* Delay 10us based on 48MHz clock */
ARM GAS  C:\Users\RYANKE~1\AppData\Local\Temp\ccXMu97e.s 			page 11


 285              		.loc 1 220 0 discriminator 4
 286 0040 184B     		ldr	r3, .L24+16
 287 0042 1B78     		ldrb	r3, [r3]	@ zero_extendqisi2
 288 0044 03F00103 		and	r3, r3, #1
 289 0048 43EA4404 		orr	r4, r3, r4, lsl #1
 290              	.LVL23:
 291 004c 04F00304 		and	r4, r4, #3
 292              	.LVL24:
 221:Generated_Source\PSoC5/cyfitter_cfg.c **** 	}
 293              		.loc 1 221 0 discriminator 4
 294 0050 4FF4F070 		mov	r0, #480
 295 0054 FFF7FEFF 		bl	CyDelayCycles
 296              	.LVL25:
 218:Generated_Source\PSoC5/cyfitter_cfg.c **** 	{ 
 297              		.loc 1 218 0 discriminator 4
 298 0058 013D     		subs	r5, r5, #1
 299              	.LVL26:
 300              	.L19:
 218:Generated_Source\PSoC5/cyfitter_cfg.c **** 	{ 
 301              		.loc 1 218 0 is_stmt 0 discriminator 1
 302 005a 0DB1     		cbz	r5, .L20
 218:Generated_Source\PSoC5/cyfitter_cfg.c **** 	{ 
 303              		.loc 1 218 0 discriminator 3
 304 005c 032C     		cmp	r4, #3
 305 005e EFD1     		bne	.L21
 306              	.L20:
 224:Generated_Source\PSoC5/cyfitter_cfg.c **** 	{
 307              		.loc 1 224 0 is_stmt 1
 308 0060 15B9     		cbnz	r5, .L22
 226:Generated_Source\PSoC5/cyfitter_cfg.c **** 	}
 309              		.loc 1 226 0
 310 0062 0320     		movs	r0, #3
 311 0064 FFF7FEFF 		bl	CyClockStartupError
 312              	.LVL27:
 313              	.L22:
 230:Generated_Source\PSoC5/cyfitter_cfg.c **** 	CY_SET_XTND_REG8((void CYFAR *)(CYREG_CLKDIST_MSTR0), 0x07u);
 314              		.loc 1 230 0
 315 0068 0F4B     		ldr	r3, .L24+20
 316 006a 4FF48072 		mov	r2, #256
 317 006e 1A80     		strh	r2, [r3]	@ movhi
 231:Generated_Source\PSoC5/cyfitter_cfg.c **** 	CY_SET_XTND_REG8((void CYFAR *)(CYREG_CLKDIST_BCFG0), 0x00u);
 318              		.loc 1 231 0
 319 0070 0722     		movs	r2, #7
 320 0072 1A70     		strb	r2, [r3]
 232:Generated_Source\PSoC5/cyfitter_cfg.c **** 	CY_SET_XTND_REG8((void CYFAR *)(CYREG_CLKDIST_BCFG2), 0x48u);
 321              		.loc 1 232 0
 322 0074 0022     		movs	r2, #0
 323 0076 0D49     		ldr	r1, .L24+24
 324 0078 0A70     		strb	r2, [r1]
 233:Generated_Source\PSoC5/cyfitter_cfg.c **** 	CY_SET_XTND_REG8((void CYFAR *)(CYREG_CLKDIST_MSTR0), 0x00u);
 325              		.loc 1 233 0
 326 007a 4820     		movs	r0, #72
 327 007c 0231     		adds	r1, r1, #2
 328 007e 0870     		strb	r0, [r1]
 234:Generated_Source\PSoC5/cyfitter_cfg.c **** 	CY_SET_XTND_REG8((void CYFAR *)(CYREG_CLKDIST_LD), 0x02u);
 329              		.loc 1 234 0
 330 0080 1A70     		strb	r2, [r3]
ARM GAS  C:\Users\RYANKE~1\AppData\Local\Temp\ccXMu97e.s 			page 12


 235:Generated_Source\PSoC5/cyfitter_cfg.c **** 
 331              		.loc 1 235 0
 332 0082 0222     		movs	r2, #2
 333 0084 033B     		subs	r3, r3, #3
 334 0086 1A70     		strb	r2, [r3]
 237:Generated_Source\PSoC5/cyfitter_cfg.c **** }
 335              		.loc 1 237 0
 336 0088 094A     		ldr	r2, .L24+28
 337 008a 1378     		ldrb	r3, [r2]	@ zero_extendqisi2
 338 008c 43F00103 		orr	r3, r3, #1
 339 0090 1370     		strb	r3, [r2]
 340 0092 38BD     		pop	{r3, r4, r5, pc}
 341              	.LVL28:
 342              	.L25:
 343              		.align	2
 344              	.L24:
 345 0094 80400040 		.word	1073758336
 346 0098 08010049 		.word	1224737032
 347 009c A1460040 		.word	1073759905
 348 00a0 22420040 		.word	1073758754
 349 00a4 25420040 		.word	1073758757
 350 00a8 04400040 		.word	1073758212
 351 00ac 06400040 		.word	1073758214
 352 00b0 A2430040 		.word	1073759138
 353              		.cfi_endproc
 354              	.LFE5:
 355              		.size	ClockSetup, .-ClockSetup
 356              		.section	.text.SetAnalogRoutingPumps,"ax",%progbits
 357              		.align	2
 358              		.global	SetAnalogRoutingPumps
 359              		.thumb
 360              		.thumb_func
 361              		.type	SetAnalogRoutingPumps, %function
 362              	SetAnalogRoutingPumps:
 363              	.LFB7:
 266:Generated_Source\PSoC5/cyfitter_cfg.c **** }
 267:Generated_Source\PSoC5/cyfitter_cfg.c **** 
 268:Generated_Source\PSoC5/cyfitter_cfg.c **** 
 269:Generated_Source\PSoC5/cyfitter_cfg.c **** /*******************************************************************************
 270:Generated_Source\PSoC5/cyfitter_cfg.c **** * Function Name: SetAnalogRoutingPumps
 271:Generated_Source\PSoC5/cyfitter_cfg.c **** ********************************************************************************
 272:Generated_Source\PSoC5/cyfitter_cfg.c **** *
 273:Generated_Source\PSoC5/cyfitter_cfg.c **** * Summary:
 274:Generated_Source\PSoC5/cyfitter_cfg.c **** * Enables or disables the analog pumps feeding analog routing switches.
 275:Generated_Source\PSoC5/cyfitter_cfg.c **** * Intended to be called at startup, based on the Vdda system configuration;
 276:Generated_Source\PSoC5/cyfitter_cfg.c **** * may be called during operation when the user informs us that the Vdda voltage
 277:Generated_Source\PSoC5/cyfitter_cfg.c **** * crossed the pump threshold.
 278:Generated_Source\PSoC5/cyfitter_cfg.c **** *
 279:Generated_Source\PSoC5/cyfitter_cfg.c **** * Parameters:
 280:Generated_Source\PSoC5/cyfitter_cfg.c **** *  enabled - 1 to enable the pumps, 0 to disable the pumps
 281:Generated_Source\PSoC5/cyfitter_cfg.c **** *
 282:Generated_Source\PSoC5/cyfitter_cfg.c **** * Return:
 283:Generated_Source\PSoC5/cyfitter_cfg.c **** *  void
 284:Generated_Source\PSoC5/cyfitter_cfg.c **** *
 285:Generated_Source\PSoC5/cyfitter_cfg.c **** *******************************************************************************/
 286:Generated_Source\PSoC5/cyfitter_cfg.c **** void SetAnalogRoutingPumps(uint8 enabled)
 287:Generated_Source\PSoC5/cyfitter_cfg.c **** {
ARM GAS  C:\Users\RYANKE~1\AppData\Local\Temp\ccXMu97e.s 			page 13


 364              		.loc 1 287 0
 365              		.cfi_startproc
 366              		@ args = 0, pretend = 0, frame = 0
 367              		@ frame_needed = 0, uses_anonymous_args = 0
 368              		@ link register save eliminated.
 369              	.LVL29:
 288:Generated_Source\PSoC5/cyfitter_cfg.c **** 	uint8 regValue = CY_GET_XTND_REG8((void CYFAR *)CYREG_PUMP_CR0);
 370              		.loc 1 288 0
 371 0000 024A     		ldr	r2, .L27
 372 0002 1378     		ldrb	r3, [r2]	@ zero_extendqisi2
 373 0004 DBB2     		uxtb	r3, r3
 374              	.LVL30:
 289:Generated_Source\PSoC5/cyfitter_cfg.c **** 	if (enabled != 0u)
 290:Generated_Source\PSoC5/cyfitter_cfg.c **** 	{
 291:Generated_Source\PSoC5/cyfitter_cfg.c **** 		regValue |= 0x00u;
 292:Generated_Source\PSoC5/cyfitter_cfg.c **** 	}
 293:Generated_Source\PSoC5/cyfitter_cfg.c **** 	else
 294:Generated_Source\PSoC5/cyfitter_cfg.c **** 	{
 295:Generated_Source\PSoC5/cyfitter_cfg.c **** 		regValue &= (uint8)~0x00u;
 296:Generated_Source\PSoC5/cyfitter_cfg.c **** 	}
 297:Generated_Source\PSoC5/cyfitter_cfg.c **** 	CY_SET_XTND_REG8((void CYFAR *)CYREG_PUMP_CR0, regValue);
 375              		.loc 1 297 0
 376 0006 1370     		strb	r3, [r2]
 377 0008 7047     		bx	lr
 378              	.L28:
 379 000a 00BF     		.align	2
 380              	.L27:
 381 000c 76580040 		.word	1073764470
 382              		.cfi_endproc
 383              	.LFE7:
 384              		.size	SetAnalogRoutingPumps, .-SetAnalogRoutingPumps
 385              		.section	.text.cyfitter_cfg,"ax",%progbits
 386              		.align	2
 387              		.global	cyfitter_cfg
 388              		.thumb
 389              		.thumb_func
 390              		.type	cyfitter_cfg, %function
 391              	cyfitter_cfg:
 392              	.LFB8:
 298:Generated_Source\PSoC5/cyfitter_cfg.c **** }
 299:Generated_Source\PSoC5/cyfitter_cfg.c **** 
 300:Generated_Source\PSoC5/cyfitter_cfg.c **** #define CY_AMUX_UNUSED CYREG_BOOST_SR
 301:Generated_Source\PSoC5/cyfitter_cfg.c **** 
 302:Generated_Source\PSoC5/cyfitter_cfg.c **** 
 303:Generated_Source\PSoC5/cyfitter_cfg.c **** /*******************************************************************************
 304:Generated_Source\PSoC5/cyfitter_cfg.c **** * Function Name: cyfitter_cfg
 305:Generated_Source\PSoC5/cyfitter_cfg.c **** ********************************************************************************
 306:Generated_Source\PSoC5/cyfitter_cfg.c **** * Summary:
 307:Generated_Source\PSoC5/cyfitter_cfg.c **** *  This function is called by the start-up code for the selected device. It
 308:Generated_Source\PSoC5/cyfitter_cfg.c **** *  performs all of the necessary device configuration based on the design
 309:Generated_Source\PSoC5/cyfitter_cfg.c **** *  settings.  This includes settings from the Design Wide Resources (DWR) such
 310:Generated_Source\PSoC5/cyfitter_cfg.c **** *  as Clocks and Pins as well as any component configuration that is necessary.
 311:Generated_Source\PSoC5/cyfitter_cfg.c **** *
 312:Generated_Source\PSoC5/cyfitter_cfg.c **** * Parameters:  
 313:Generated_Source\PSoC5/cyfitter_cfg.c **** *   void
 314:Generated_Source\PSoC5/cyfitter_cfg.c **** *
 315:Generated_Source\PSoC5/cyfitter_cfg.c **** * Return:
ARM GAS  C:\Users\RYANKE~1\AppData\Local\Temp\ccXMu97e.s 			page 14


 316:Generated_Source\PSoC5/cyfitter_cfg.c **** *   void
 317:Generated_Source\PSoC5/cyfitter_cfg.c **** *
 318:Generated_Source\PSoC5/cyfitter_cfg.c **** *******************************************************************************/
 319:Generated_Source\PSoC5/cyfitter_cfg.c **** 
 320:Generated_Source\PSoC5/cyfitter_cfg.c **** void cyfitter_cfg(void)
 321:Generated_Source\PSoC5/cyfitter_cfg.c **** {
 393              		.loc 1 321 0
 394              		.cfi_startproc
 395              		@ args = 0, pretend = 0, frame = 0
 396              		@ frame_needed = 0, uses_anonymous_args = 0
 397 0000 38B5     		push	{r3, r4, r5, lr}
 398              		.cfi_def_cfa_offset 16
 399              		.cfi_offset 3, -16
 400              		.cfi_offset 4, -12
 401              		.cfi_offset 5, -8
 402              		.cfi_offset 14, -4
 322:Generated_Source\PSoC5/cyfitter_cfg.c **** 	/* IOPINS0_8 Address: CYREG_PRT15_DM0 Size (bytes): 8 */
 323:Generated_Source\PSoC5/cyfitter_cfg.c **** 	static const uint8 CYCODE BS_IOPINS0_8_VAL[] = {
 324:Generated_Source\PSoC5/cyfitter_cfg.c **** 		0x00u, 0x10u, 0x10u, 0x00u, 0x00u, 0x00u, 0x00u, 0x00u};
 325:Generated_Source\PSoC5/cyfitter_cfg.c **** 
 326:Generated_Source\PSoC5/cyfitter_cfg.c **** 	/* IOPINS0_1 Address: CYREG_PRT1_DR Size (bytes): 10 */
 327:Generated_Source\PSoC5/cyfitter_cfg.c **** 	static const uint8 CYCODE BS_IOPINS0_1_VAL[] = {
 328:Generated_Source\PSoC5/cyfitter_cfg.c **** 		0x20u, 0x00u, 0xC0u, 0x20u, 0x20u, 0x00u, 0x20u, 0x00u, 0x00u, 0x00u};
 329:Generated_Source\PSoC5/cyfitter_cfg.c **** 
 330:Generated_Source\PSoC5/cyfitter_cfg.c **** #ifdef CYGlobalIntDisable
 331:Generated_Source\PSoC5/cyfitter_cfg.c **** 	/* Disable interrupts by default. Let user enable if/when they want. */
 332:Generated_Source\PSoC5/cyfitter_cfg.c **** 	CYGlobalIntDisable
 403              		.loc 1 332 0
 404              	@ 332 "Generated_Source\PSoC5\cyfitter_cfg.c" 1
 405 0002 72B6     		CPSID   i
 406              	@ 0 "" 2
 333:Generated_Source\PSoC5/cyfitter_cfg.c **** #endif
 334:Generated_Source\PSoC5/cyfitter_cfg.c **** 
 335:Generated_Source\PSoC5/cyfitter_cfg.c **** 	/* Enable/Disable Debug functionality based on settings from System DWR */
 336:Generated_Source\PSoC5/cyfitter_cfg.c **** 	CY_SET_XTND_REG8((void CYFAR *)CYREG_MLOGIC_DEBUG, (CY_GET_XTND_REG8((void CYFAR *)CYREG_MLOGIC_DE
 407              		.loc 1 336 0
 408              		.thumb
 409 0004 2A4A     		ldr	r2, .L33
 410 0006 1378     		ldrb	r3, [r2]	@ zero_extendqisi2
 411 0008 43F02003 		orr	r3, r3, #32
 412 000c 1370     		strb	r3, [r2]
 413              	.LVL31:
 414              	.LBB3:
 337:Generated_Source\PSoC5/cyfitter_cfg.c **** 
 338:Generated_Source\PSoC5/cyfitter_cfg.c **** 	{
 339:Generated_Source\PSoC5/cyfitter_cfg.c **** 		static const uint32 CYCODE cy_cfg_addr_table[] = {
 340:Generated_Source\PSoC5/cyfitter_cfg.c **** 			0x40005202u, /* Base address: 0x40005200 Count: 2 */
 341:Generated_Source\PSoC5/cyfitter_cfg.c **** 			0x40006401u, /* Base address: 0x40006400 Count: 1 */
 342:Generated_Source\PSoC5/cyfitter_cfg.c **** 			0x40006502u, /* Base address: 0x40006500 Count: 2 */
 343:Generated_Source\PSoC5/cyfitter_cfg.c **** 			0x40010701u, /* Base address: 0x40010700 Count: 1 */
 344:Generated_Source\PSoC5/cyfitter_cfg.c **** 			0x4001084Fu, /* Base address: 0x40010800 Count: 79 */
 345:Generated_Source\PSoC5/cyfitter_cfg.c **** 			0x40010932u, /* Base address: 0x40010900 Count: 50 */
 346:Generated_Source\PSoC5/cyfitter_cfg.c **** 			0x40011849u, /* Base address: 0x40011800 Count: 73 */
 347:Generated_Source\PSoC5/cyfitter_cfg.c **** 			0x40011945u, /* Base address: 0x40011900 Count: 69 */
 348:Generated_Source\PSoC5/cyfitter_cfg.c **** 			0x40011A55u, /* Base address: 0x40011A00 Count: 85 */
 349:Generated_Source\PSoC5/cyfitter_cfg.c **** 			0x40011B4Cu, /* Base address: 0x40011B00 Count: 76 */
 350:Generated_Source\PSoC5/cyfitter_cfg.c **** 			0x40014002u, /* Base address: 0x40014000 Count: 2 */
ARM GAS  C:\Users\RYANKE~1\AppData\Local\Temp\ccXMu97e.s 			page 15


 351:Generated_Source\PSoC5/cyfitter_cfg.c **** 			0x40014101u, /* Base address: 0x40014100 Count: 1 */
 352:Generated_Source\PSoC5/cyfitter_cfg.c **** 			0x40014201u, /* Base address: 0x40014200 Count: 1 */
 353:Generated_Source\PSoC5/cyfitter_cfg.c **** 			0x40014303u, /* Base address: 0x40014300 Count: 3 */
 354:Generated_Source\PSoC5/cyfitter_cfg.c **** 			0x40014C07u, /* Base address: 0x40014C00 Count: 7 */
 355:Generated_Source\PSoC5/cyfitter_cfg.c **** 			0x40014D03u, /* Base address: 0x40014D00 Count: 3 */
 356:Generated_Source\PSoC5/cyfitter_cfg.c **** 			0x40015004u, /* Base address: 0x40015000 Count: 4 */
 357:Generated_Source\PSoC5/cyfitter_cfg.c **** 			0x40015101u, /* Base address: 0x40015100 Count: 1 */
 358:Generated_Source\PSoC5/cyfitter_cfg.c **** 		};
 359:Generated_Source\PSoC5/cyfitter_cfg.c **** 
 360:Generated_Source\PSoC5/cyfitter_cfg.c **** 		static const cy_cfg_addrvalue_t CYCODE cy_cfg_data_table[] = {
 361:Generated_Source\PSoC5/cyfitter_cfg.c **** 			{0x09u, 0x20u},
 362:Generated_Source\PSoC5/cyfitter_cfg.c **** 			{0x0Cu, 0x40u},
 363:Generated_Source\PSoC5/cyfitter_cfg.c **** 			{0x89u, 0x38u},
 364:Generated_Source\PSoC5/cyfitter_cfg.c **** 			{0x88u, 0x72u},
 365:Generated_Source\PSoC5/cyfitter_cfg.c **** 			{0x8Au, 0x0Fu},
 366:Generated_Source\PSoC5/cyfitter_cfg.c **** 			{0xE6u, 0x02u},
 367:Generated_Source\PSoC5/cyfitter_cfg.c **** 			{0x01u, 0x10u},
 368:Generated_Source\PSoC5/cyfitter_cfg.c **** 			{0x02u, 0x08u},
 369:Generated_Source\PSoC5/cyfitter_cfg.c **** 			{0x06u, 0x0Cu},
 370:Generated_Source\PSoC5/cyfitter_cfg.c **** 			{0x07u, 0x08u},
 371:Generated_Source\PSoC5/cyfitter_cfg.c **** 			{0x08u, 0x40u},
 372:Generated_Source\PSoC5/cyfitter_cfg.c **** 			{0x0Bu, 0x21u},
 373:Generated_Source\PSoC5/cyfitter_cfg.c **** 			{0x0Cu, 0x40u},
 374:Generated_Source\PSoC5/cyfitter_cfg.c **** 			{0x0Fu, 0x46u},
 375:Generated_Source\PSoC5/cyfitter_cfg.c **** 			{0x10u, 0x40u},
 376:Generated_Source\PSoC5/cyfitter_cfg.c **** 			{0x11u, 0x18u},
 377:Generated_Source\PSoC5/cyfitter_cfg.c **** 			{0x14u, 0x40u},
 378:Generated_Source\PSoC5/cyfitter_cfg.c **** 			{0x15u, 0x18u},
 379:Generated_Source\PSoC5/cyfitter_cfg.c **** 			{0x1Bu, 0x21u},
 380:Generated_Source\PSoC5/cyfitter_cfg.c **** 			{0x20u, 0x0Cu},
 381:Generated_Source\PSoC5/cyfitter_cfg.c **** 			{0x22u, 0x13u},
 382:Generated_Source\PSoC5/cyfitter_cfg.c **** 			{0x24u, 0x11u},
 383:Generated_Source\PSoC5/cyfitter_cfg.c **** 			{0x25u, 0x01u},
 384:Generated_Source\PSoC5/cyfitter_cfg.c **** 			{0x26u, 0x06u},
 385:Generated_Source\PSoC5/cyfitter_cfg.c **** 			{0x27u, 0x02u},
 386:Generated_Source\PSoC5/cyfitter_cfg.c **** 			{0x28u, 0x20u},
 387:Generated_Source\PSoC5/cyfitter_cfg.c **** 			{0x29u, 0x01u},
 388:Generated_Source\PSoC5/cyfitter_cfg.c **** 			{0x2Au, 0x03u},
 389:Generated_Source\PSoC5/cyfitter_cfg.c **** 			{0x2Bu, 0x04u},
 390:Generated_Source\PSoC5/cyfitter_cfg.c **** 			{0x2Cu, 0x11u},
 391:Generated_Source\PSoC5/cyfitter_cfg.c **** 			{0x2Eu, 0x0Eu},
 392:Generated_Source\PSoC5/cyfitter_cfg.c **** 			{0x2Fu, 0x21u},
 393:Generated_Source\PSoC5/cyfitter_cfg.c **** 			{0x32u, 0x30u},
 394:Generated_Source\PSoC5/cyfitter_cfg.c **** 			{0x33u, 0x60u},
 395:Generated_Source\PSoC5/cyfitter_cfg.c **** 			{0x34u, 0x40u},
 396:Generated_Source\PSoC5/cyfitter_cfg.c **** 			{0x35u, 0x18u},
 397:Generated_Source\PSoC5/cyfitter_cfg.c **** 			{0x36u, 0x0Fu},
 398:Generated_Source\PSoC5/cyfitter_cfg.c **** 			{0x37u, 0x07u},
 399:Generated_Source\PSoC5/cyfitter_cfg.c **** 			{0x38u, 0x08u},
 400:Generated_Source\PSoC5/cyfitter_cfg.c **** 			{0x39u, 0x20u},
 401:Generated_Source\PSoC5/cyfitter_cfg.c **** 			{0x3Au, 0x80u},
 402:Generated_Source\PSoC5/cyfitter_cfg.c **** 			{0x3Bu, 0x82u},
 403:Generated_Source\PSoC5/cyfitter_cfg.c **** 			{0x3Eu, 0x10u},
 404:Generated_Source\PSoC5/cyfitter_cfg.c **** 			{0x3Fu, 0x14u},
 405:Generated_Source\PSoC5/cyfitter_cfg.c **** 			{0x40u, 0x03u},
 406:Generated_Source\PSoC5/cyfitter_cfg.c **** 			{0x46u, 0x04u},
 407:Generated_Source\PSoC5/cyfitter_cfg.c **** 			{0x49u, 0xFFu},
ARM GAS  C:\Users\RYANKE~1\AppData\Local\Temp\ccXMu97e.s 			page 16


 408:Generated_Source\PSoC5/cyfitter_cfg.c **** 			{0x4Au, 0x07u},
 409:Generated_Source\PSoC5/cyfitter_cfg.c **** 			{0x4Bu, 0xFFu},
 410:Generated_Source\PSoC5/cyfitter_cfg.c **** 			{0x4Cu, 0x40u},
 411:Generated_Source\PSoC5/cyfitter_cfg.c **** 			{0x4Du, 0x20u},
 412:Generated_Source\PSoC5/cyfitter_cfg.c **** 			{0x4Eu, 0xF0u},
 413:Generated_Source\PSoC5/cyfitter_cfg.c **** 			{0x4Fu, 0x05u},
 414:Generated_Source\PSoC5/cyfitter_cfg.c **** 			{0x50u, 0x08u},
 415:Generated_Source\PSoC5/cyfitter_cfg.c **** 			{0x58u, 0x04u},
 416:Generated_Source\PSoC5/cyfitter_cfg.c **** 			{0x59u, 0x04u},
 417:Generated_Source\PSoC5/cyfitter_cfg.c **** 			{0x5Au, 0x04u},
 418:Generated_Source\PSoC5/cyfitter_cfg.c **** 			{0x5Fu, 0x01u},
 419:Generated_Source\PSoC5/cyfitter_cfg.c **** 			{0x60u, 0x40u},
 420:Generated_Source\PSoC5/cyfitter_cfg.c **** 			{0x61u, 0xA8u},
 421:Generated_Source\PSoC5/cyfitter_cfg.c **** 			{0x62u, 0x40u},
 422:Generated_Source\PSoC5/cyfitter_cfg.c **** 			{0x63u, 0x20u},
 423:Generated_Source\PSoC5/cyfitter_cfg.c **** 			{0x86u, 0x01u},
 424:Generated_Source\PSoC5/cyfitter_cfg.c **** 			{0x8Au, 0x02u},
 425:Generated_Source\PSoC5/cyfitter_cfg.c **** 			{0x8Eu, 0x02u},
 426:Generated_Source\PSoC5/cyfitter_cfg.c **** 			{0x8Fu, 0x01u},
 427:Generated_Source\PSoC5/cyfitter_cfg.c **** 			{0x90u, 0x02u},
 428:Generated_Source\PSoC5/cyfitter_cfg.c **** 			{0x96u, 0x01u},
 429:Generated_Source\PSoC5/cyfitter_cfg.c **** 			{0x9Eu, 0x01u},
 430:Generated_Source\PSoC5/cyfitter_cfg.c **** 			{0xA4u, 0x01u},
 431:Generated_Source\PSoC5/cyfitter_cfg.c **** 			{0xA7u, 0x01u},
 432:Generated_Source\PSoC5/cyfitter_cfg.c **** 			{0xA8u, 0x02u},
 433:Generated_Source\PSoC5/cyfitter_cfg.c **** 			{0xACu, 0x01u},
 434:Generated_Source\PSoC5/cyfitter_cfg.c **** 			{0xB0u, 0x01u},
 435:Generated_Source\PSoC5/cyfitter_cfg.c **** 			{0xB2u, 0x02u},
 436:Generated_Source\PSoC5/cyfitter_cfg.c **** 			{0xB5u, 0x01u},
 437:Generated_Source\PSoC5/cyfitter_cfg.c **** 			{0xB8u, 0x08u},
 438:Generated_Source\PSoC5/cyfitter_cfg.c **** 			{0xBEu, 0x01u},
 439:Generated_Source\PSoC5/cyfitter_cfg.c **** 			{0xBFu, 0x10u},
 440:Generated_Source\PSoC5/cyfitter_cfg.c **** 			{0xD4u, 0x18u},
 441:Generated_Source\PSoC5/cyfitter_cfg.c **** 			{0xD6u, 0x04u},
 442:Generated_Source\PSoC5/cyfitter_cfg.c **** 			{0xD8u, 0x04u},
 443:Generated_Source\PSoC5/cyfitter_cfg.c **** 			{0xD9u, 0x04u},
 444:Generated_Source\PSoC5/cyfitter_cfg.c **** 			{0xDBu, 0x04u},
 445:Generated_Source\PSoC5/cyfitter_cfg.c **** 			{0xDFu, 0x01u},
 446:Generated_Source\PSoC5/cyfitter_cfg.c **** 			{0x00u, 0x10u},
 447:Generated_Source\PSoC5/cyfitter_cfg.c **** 			{0x02u, 0x21u},
 448:Generated_Source\PSoC5/cyfitter_cfg.c **** 			{0x04u, 0x10u},
 449:Generated_Source\PSoC5/cyfitter_cfg.c **** 			{0x05u, 0x04u},
 450:Generated_Source\PSoC5/cyfitter_cfg.c **** 			{0x06u, 0x41u},
 451:Generated_Source\PSoC5/cyfitter_cfg.c **** 			{0x07u, 0x02u},
 452:Generated_Source\PSoC5/cyfitter_cfg.c **** 			{0x08u, 0x40u},
 453:Generated_Source\PSoC5/cyfitter_cfg.c **** 			{0x09u, 0x06u},
 454:Generated_Source\PSoC5/cyfitter_cfg.c **** 			{0x0Au, 0x01u},
 455:Generated_Source\PSoC5/cyfitter_cfg.c **** 			{0x0Du, 0x02u},
 456:Generated_Source\PSoC5/cyfitter_cfg.c **** 			{0x0Fu, 0x10u},
 457:Generated_Source\PSoC5/cyfitter_cfg.c **** 			{0x12u, 0x02u},
 458:Generated_Source\PSoC5/cyfitter_cfg.c **** 			{0x13u, 0x18u},
 459:Generated_Source\PSoC5/cyfitter_cfg.c **** 			{0x14u, 0x41u},
 460:Generated_Source\PSoC5/cyfitter_cfg.c **** 			{0x16u, 0x08u},
 461:Generated_Source\PSoC5/cyfitter_cfg.c **** 			{0x17u, 0x08u},
 462:Generated_Source\PSoC5/cyfitter_cfg.c **** 			{0x19u, 0x08u},
 463:Generated_Source\PSoC5/cyfitter_cfg.c **** 			{0x1Au, 0x40u},
 464:Generated_Source\PSoC5/cyfitter_cfg.c **** 			{0x1Cu, 0x04u},
ARM GAS  C:\Users\RYANKE~1\AppData\Local\Temp\ccXMu97e.s 			page 17


 465:Generated_Source\PSoC5/cyfitter_cfg.c **** 			{0x1Du, 0x04u},
 466:Generated_Source\PSoC5/cyfitter_cfg.c **** 			{0x1Eu, 0x01u},
 467:Generated_Source\PSoC5/cyfitter_cfg.c **** 			{0x23u, 0x04u},
 468:Generated_Source\PSoC5/cyfitter_cfg.c **** 			{0x25u, 0x4Au},
 469:Generated_Source\PSoC5/cyfitter_cfg.c **** 			{0x26u, 0x04u},
 470:Generated_Source\PSoC5/cyfitter_cfg.c **** 			{0x27u, 0x04u},
 471:Generated_Source\PSoC5/cyfitter_cfg.c **** 			{0x29u, 0x08u},
 472:Generated_Source\PSoC5/cyfitter_cfg.c **** 			{0x2Du, 0x80u},
 473:Generated_Source\PSoC5/cyfitter_cfg.c **** 			{0x2Fu, 0x28u},
 474:Generated_Source\PSoC5/cyfitter_cfg.c **** 			{0x34u, 0x01u},
 475:Generated_Source\PSoC5/cyfitter_cfg.c **** 			{0x36u, 0x03u},
 476:Generated_Source\PSoC5/cyfitter_cfg.c **** 			{0x37u, 0x28u},
 477:Generated_Source\PSoC5/cyfitter_cfg.c **** 			{0x39u, 0x80u},
 478:Generated_Source\PSoC5/cyfitter_cfg.c **** 			{0x3Du, 0xA0u},
 479:Generated_Source\PSoC5/cyfitter_cfg.c **** 			{0x3Eu, 0x29u},
 480:Generated_Source\PSoC5/cyfitter_cfg.c **** 			{0x47u, 0x04u},
 481:Generated_Source\PSoC5/cyfitter_cfg.c **** 			{0x54u, 0x04u},
 482:Generated_Source\PSoC5/cyfitter_cfg.c **** 			{0x55u, 0x04u},
 483:Generated_Source\PSoC5/cyfitter_cfg.c **** 			{0x56u, 0x48u},
 484:Generated_Source\PSoC5/cyfitter_cfg.c **** 			{0x5Au, 0x02u},
 485:Generated_Source\PSoC5/cyfitter_cfg.c **** 			{0x63u, 0x46u},
 486:Generated_Source\PSoC5/cyfitter_cfg.c **** 			{0x87u, 0x40u},
 487:Generated_Source\PSoC5/cyfitter_cfg.c **** 			{0xC0u, 0xF7u},
 488:Generated_Source\PSoC5/cyfitter_cfg.c **** 			{0xC2u, 0x3Du},
 489:Generated_Source\PSoC5/cyfitter_cfg.c **** 			{0xC4u, 0xF7u},
 490:Generated_Source\PSoC5/cyfitter_cfg.c **** 			{0xCAu, 0x72u},
 491:Generated_Source\PSoC5/cyfitter_cfg.c **** 			{0xCCu, 0xE0u},
 492:Generated_Source\PSoC5/cyfitter_cfg.c **** 			{0xCEu, 0xF8u},
 493:Generated_Source\PSoC5/cyfitter_cfg.c **** 			{0xD0u, 0x40u},
 494:Generated_Source\PSoC5/cyfitter_cfg.c **** 			{0xD6u, 0x01u},
 495:Generated_Source\PSoC5/cyfitter_cfg.c **** 			{0xD8u, 0x0Du},
 496:Generated_Source\PSoC5/cyfitter_cfg.c **** 			{0x09u, 0x01u},
 497:Generated_Source\PSoC5/cyfitter_cfg.c **** 			{0x0Bu, 0x02u},
 498:Generated_Source\PSoC5/cyfitter_cfg.c **** 			{0x15u, 0x07u},
 499:Generated_Source\PSoC5/cyfitter_cfg.c **** 			{0x19u, 0x02u},
 500:Generated_Source\PSoC5/cyfitter_cfg.c **** 			{0x1Bu, 0x05u},
 501:Generated_Source\PSoC5/cyfitter_cfg.c **** 			{0x24u, 0x01u},
 502:Generated_Source\PSoC5/cyfitter_cfg.c **** 			{0x25u, 0x07u},
 503:Generated_Source\PSoC5/cyfitter_cfg.c **** 			{0x28u, 0x01u},
 504:Generated_Source\PSoC5/cyfitter_cfg.c **** 			{0x29u, 0x04u},
 505:Generated_Source\PSoC5/cyfitter_cfg.c **** 			{0x2Bu, 0x02u},
 506:Generated_Source\PSoC5/cyfitter_cfg.c **** 			{0x2Cu, 0x01u},
 507:Generated_Source\PSoC5/cyfitter_cfg.c **** 			{0x33u, 0x07u},
 508:Generated_Source\PSoC5/cyfitter_cfg.c **** 			{0x36u, 0x01u},
 509:Generated_Source\PSoC5/cyfitter_cfg.c **** 			{0x56u, 0x02u},
 510:Generated_Source\PSoC5/cyfitter_cfg.c **** 			{0x57u, 0x12u},
 511:Generated_Source\PSoC5/cyfitter_cfg.c **** 			{0x58u, 0x04u},
 512:Generated_Source\PSoC5/cyfitter_cfg.c **** 			{0x59u, 0x04u},
 513:Generated_Source\PSoC5/cyfitter_cfg.c **** 			{0x5Bu, 0x04u},
 514:Generated_Source\PSoC5/cyfitter_cfg.c **** 			{0x5Fu, 0x01u},
 515:Generated_Source\PSoC5/cyfitter_cfg.c **** 			{0x80u, 0x40u},
 516:Generated_Source\PSoC5/cyfitter_cfg.c **** 			{0x81u, 0x04u},
 517:Generated_Source\PSoC5/cyfitter_cfg.c **** 			{0x84u, 0x39u},
 518:Generated_Source\PSoC5/cyfitter_cfg.c **** 			{0x85u, 0x19u},
 519:Generated_Source\PSoC5/cyfitter_cfg.c **** 			{0x86u, 0x04u},
 520:Generated_Source\PSoC5/cyfitter_cfg.c **** 			{0x87u, 0x06u},
 521:Generated_Source\PSoC5/cyfitter_cfg.c **** 			{0x88u, 0x30u},
ARM GAS  C:\Users\RYANKE~1\AppData\Local\Temp\ccXMu97e.s 			page 18


 522:Generated_Source\PSoC5/cyfitter_cfg.c **** 			{0x89u, 0x06u},
 523:Generated_Source\PSoC5/cyfitter_cfg.c **** 			{0x8Cu, 0x08u},
 524:Generated_Source\PSoC5/cyfitter_cfg.c **** 			{0x90u, 0x3Fu},
 525:Generated_Source\PSoC5/cyfitter_cfg.c **** 			{0x91u, 0x1Fu},
 526:Generated_Source\PSoC5/cyfitter_cfg.c **** 			{0x94u, 0x0Fu},
 527:Generated_Source\PSoC5/cyfitter_cfg.c **** 			{0x95u, 0x11u},
 528:Generated_Source\PSoC5/cyfitter_cfg.c **** 			{0x96u, 0x30u},
 529:Generated_Source\PSoC5/cyfitter_cfg.c **** 			{0x9Au, 0x09u},
 530:Generated_Source\PSoC5/cyfitter_cfg.c **** 			{0x9Du, 0x07u},
 531:Generated_Source\PSoC5/cyfitter_cfg.c **** 			{0x9Eu, 0x06u},
 532:Generated_Source\PSoC5/cyfitter_cfg.c **** 			{0x9Fu, 0x18u},
 533:Generated_Source\PSoC5/cyfitter_cfg.c **** 			{0xA0u, 0x39u},
 534:Generated_Source\PSoC5/cyfitter_cfg.c **** 			{0xA2u, 0x02u},
 535:Generated_Source\PSoC5/cyfitter_cfg.c **** 			{0xA3u, 0x19u},
 536:Generated_Source\PSoC5/cyfitter_cfg.c **** 			{0xA4u, 0x10u},
 537:Generated_Source\PSoC5/cyfitter_cfg.c **** 			{0xA5u, 0x06u},
 538:Generated_Source\PSoC5/cyfitter_cfg.c **** 			{0xA7u, 0x19u},
 539:Generated_Source\PSoC5/cyfitter_cfg.c **** 			{0xA8u, 0x01u},
 540:Generated_Source\PSoC5/cyfitter_cfg.c **** 			{0xA9u, 0x02u},
 541:Generated_Source\PSoC5/cyfitter_cfg.c **** 			{0xAAu, 0x40u},
 542:Generated_Source\PSoC5/cyfitter_cfg.c **** 			{0xACu, 0x20u},
 543:Generated_Source\PSoC5/cyfitter_cfg.c **** 			{0xB1u, 0x10u},
 544:Generated_Source\PSoC5/cyfitter_cfg.c **** 			{0xB2u, 0x3Fu},
 545:Generated_Source\PSoC5/cyfitter_cfg.c **** 			{0xB3u, 0x07u},
 546:Generated_Source\PSoC5/cyfitter_cfg.c **** 			{0xB4u, 0x40u},
 547:Generated_Source\PSoC5/cyfitter_cfg.c **** 			{0xB7u, 0x0Eu},
 548:Generated_Source\PSoC5/cyfitter_cfg.c **** 			{0xBAu, 0x08u},
 549:Generated_Source\PSoC5/cyfitter_cfg.c **** 			{0xBBu, 0x88u},
 550:Generated_Source\PSoC5/cyfitter_cfg.c **** 			{0xBEu, 0x10u},
 551:Generated_Source\PSoC5/cyfitter_cfg.c **** 			{0xC0u, 0x26u},
 552:Generated_Source\PSoC5/cyfitter_cfg.c **** 			{0xC1u, 0x05u},
 553:Generated_Source\PSoC5/cyfitter_cfg.c **** 			{0xC5u, 0x0Bu},
 554:Generated_Source\PSoC5/cyfitter_cfg.c **** 			{0xC6u, 0xCEu},
 555:Generated_Source\PSoC5/cyfitter_cfg.c **** 			{0xC8u, 0x0Du},
 556:Generated_Source\PSoC5/cyfitter_cfg.c **** 			{0xC9u, 0xFFu},
 557:Generated_Source\PSoC5/cyfitter_cfg.c **** 			{0xCAu, 0xFFu},
 558:Generated_Source\PSoC5/cyfitter_cfg.c **** 			{0xCBu, 0xFFu},
 559:Generated_Source\PSoC5/cyfitter_cfg.c **** 			{0xCEu, 0xF0u},
 560:Generated_Source\PSoC5/cyfitter_cfg.c **** 			{0xCFu, 0x44u},
 561:Generated_Source\PSoC5/cyfitter_cfg.c **** 			{0xD0u, 0x0Cu},
 562:Generated_Source\PSoC5/cyfitter_cfg.c **** 			{0xD8u, 0x04u},
 563:Generated_Source\PSoC5/cyfitter_cfg.c **** 			{0xD9u, 0x04u},
 564:Generated_Source\PSoC5/cyfitter_cfg.c **** 			{0xDAu, 0x04u},
 565:Generated_Source\PSoC5/cyfitter_cfg.c **** 			{0xDFu, 0x01u},
 566:Generated_Source\PSoC5/cyfitter_cfg.c **** 			{0xE6u, 0xC0u},
 567:Generated_Source\PSoC5/cyfitter_cfg.c **** 			{0xEAu, 0x40u},
 568:Generated_Source\PSoC5/cyfitter_cfg.c **** 			{0xEBu, 0x02u},
 569:Generated_Source\PSoC5/cyfitter_cfg.c **** 			{0x01u, 0x98u},
 570:Generated_Source\PSoC5/cyfitter_cfg.c **** 			{0x03u, 0x40u},
 571:Generated_Source\PSoC5/cyfitter_cfg.c **** 			{0x09u, 0x82u},
 572:Generated_Source\PSoC5/cyfitter_cfg.c **** 			{0x0Au, 0x08u},
 573:Generated_Source\PSoC5/cyfitter_cfg.c **** 			{0x0Bu, 0x10u},
 574:Generated_Source\PSoC5/cyfitter_cfg.c **** 			{0x10u, 0x20u},
 575:Generated_Source\PSoC5/cyfitter_cfg.c **** 			{0x11u, 0x20u},
 576:Generated_Source\PSoC5/cyfitter_cfg.c **** 			{0x12u, 0x09u},
 577:Generated_Source\PSoC5/cyfitter_cfg.c **** 			{0x13u, 0x02u},
 578:Generated_Source\PSoC5/cyfitter_cfg.c **** 			{0x15u, 0x40u},
ARM GAS  C:\Users\RYANKE~1\AppData\Local\Temp\ccXMu97e.s 			page 19


 579:Generated_Source\PSoC5/cyfitter_cfg.c **** 			{0x17u, 0x14u},
 580:Generated_Source\PSoC5/cyfitter_cfg.c **** 			{0x18u, 0x10u},
 581:Generated_Source\PSoC5/cyfitter_cfg.c **** 			{0x19u, 0x18u},
 582:Generated_Source\PSoC5/cyfitter_cfg.c **** 			{0x1Du, 0x80u},
 583:Generated_Source\PSoC5/cyfitter_cfg.c **** 			{0x1Fu, 0x80u},
 584:Generated_Source\PSoC5/cyfitter_cfg.c **** 			{0x21u, 0x04u},
 585:Generated_Source\PSoC5/cyfitter_cfg.c **** 			{0x22u, 0x41u},
 586:Generated_Source\PSoC5/cyfitter_cfg.c **** 			{0x23u, 0x12u},
 587:Generated_Source\PSoC5/cyfitter_cfg.c **** 			{0x27u, 0x20u},
 588:Generated_Source\PSoC5/cyfitter_cfg.c **** 			{0x29u, 0x28u},
 589:Generated_Source\PSoC5/cyfitter_cfg.c **** 			{0x2Bu, 0x80u},
 590:Generated_Source\PSoC5/cyfitter_cfg.c **** 			{0x2Eu, 0x20u},
 591:Generated_Source\PSoC5/cyfitter_cfg.c **** 			{0x2Fu, 0x20u},
 592:Generated_Source\PSoC5/cyfitter_cfg.c **** 			{0x31u, 0x0Au},
 593:Generated_Source\PSoC5/cyfitter_cfg.c **** 			{0x32u, 0x40u},
 594:Generated_Source\PSoC5/cyfitter_cfg.c **** 			{0x37u, 0x24u},
 595:Generated_Source\PSoC5/cyfitter_cfg.c **** 			{0x39u, 0x18u},
 596:Generated_Source\PSoC5/cyfitter_cfg.c **** 			{0x3Au, 0x11u},
 597:Generated_Source\PSoC5/cyfitter_cfg.c **** 			{0x3Du, 0x20u},
 598:Generated_Source\PSoC5/cyfitter_cfg.c **** 			{0x41u, 0x10u},
 599:Generated_Source\PSoC5/cyfitter_cfg.c **** 			{0x48u, 0x04u},
 600:Generated_Source\PSoC5/cyfitter_cfg.c **** 			{0x4Au, 0x01u},
 601:Generated_Source\PSoC5/cyfitter_cfg.c **** 			{0x4Bu, 0x04u},
 602:Generated_Source\PSoC5/cyfitter_cfg.c **** 			{0x50u, 0x10u},
 603:Generated_Source\PSoC5/cyfitter_cfg.c **** 			{0x52u, 0x20u},
 604:Generated_Source\PSoC5/cyfitter_cfg.c **** 			{0x53u, 0x40u},
 605:Generated_Source\PSoC5/cyfitter_cfg.c **** 			{0x5Cu, 0x04u},
 606:Generated_Source\PSoC5/cyfitter_cfg.c **** 			{0x6Du, 0x40u},
 607:Generated_Source\PSoC5/cyfitter_cfg.c **** 			{0x6Fu, 0x3Cu},
 608:Generated_Source\PSoC5/cyfitter_cfg.c **** 			{0x74u, 0x20u},
 609:Generated_Source\PSoC5/cyfitter_cfg.c **** 			{0x75u, 0x20u},
 610:Generated_Source\PSoC5/cyfitter_cfg.c **** 			{0x76u, 0x11u},
 611:Generated_Source\PSoC5/cyfitter_cfg.c **** 			{0x90u, 0x04u},
 612:Generated_Source\PSoC5/cyfitter_cfg.c **** 			{0x92u, 0x40u},
 613:Generated_Source\PSoC5/cyfitter_cfg.c **** 			{0x94u, 0x10u},
 614:Generated_Source\PSoC5/cyfitter_cfg.c **** 			{0x95u, 0x80u},
 615:Generated_Source\PSoC5/cyfitter_cfg.c **** 			{0x96u, 0x02u},
 616:Generated_Source\PSoC5/cyfitter_cfg.c **** 			{0x97u, 0x10u},
 617:Generated_Source\PSoC5/cyfitter_cfg.c **** 			{0x98u, 0x40u},
 618:Generated_Source\PSoC5/cyfitter_cfg.c **** 			{0x99u, 0x04u},
 619:Generated_Source\PSoC5/cyfitter_cfg.c **** 			{0x9Au, 0x48u},
 620:Generated_Source\PSoC5/cyfitter_cfg.c **** 			{0x9Du, 0x80u},
 621:Generated_Source\PSoC5/cyfitter_cfg.c **** 			{0x9Fu, 0x2Au},
 622:Generated_Source\PSoC5/cyfitter_cfg.c **** 			{0xA0u, 0x04u},
 623:Generated_Source\PSoC5/cyfitter_cfg.c **** 			{0xA1u, 0x1Au},
 624:Generated_Source\PSoC5/cyfitter_cfg.c **** 			{0xA2u, 0x04u},
 625:Generated_Source\PSoC5/cyfitter_cfg.c **** 			{0xA6u, 0x21u},
 626:Generated_Source\PSoC5/cyfitter_cfg.c **** 			{0xA7u, 0x29u},
 627:Generated_Source\PSoC5/cyfitter_cfg.c **** 			{0xAAu, 0x20u},
 628:Generated_Source\PSoC5/cyfitter_cfg.c **** 			{0xC0u, 0x0Fu},
 629:Generated_Source\PSoC5/cyfitter_cfg.c **** 			{0xC2u, 0x0Fu},
 630:Generated_Source\PSoC5/cyfitter_cfg.c **** 			{0xC4u, 0xEFu},
 631:Generated_Source\PSoC5/cyfitter_cfg.c **** 			{0xCAu, 0x67u},
 632:Generated_Source\PSoC5/cyfitter_cfg.c **** 			{0xCCu, 0x6Bu},
 633:Generated_Source\PSoC5/cyfitter_cfg.c **** 			{0xCEu, 0x27u},
 634:Generated_Source\PSoC5/cyfitter_cfg.c **** 			{0xD0u, 0x04u},
 635:Generated_Source\PSoC5/cyfitter_cfg.c **** 			{0xD2u, 0x0Cu},
ARM GAS  C:\Users\RYANKE~1\AppData\Local\Temp\ccXMu97e.s 			page 20


 636:Generated_Source\PSoC5/cyfitter_cfg.c **** 			{0xD6u, 0x40u},
 637:Generated_Source\PSoC5/cyfitter_cfg.c **** 			{0xEAu, 0x04u},
 638:Generated_Source\PSoC5/cyfitter_cfg.c **** 			{0x02u, 0x08u},
 639:Generated_Source\PSoC5/cyfitter_cfg.c **** 			{0x04u, 0x06u},
 640:Generated_Source\PSoC5/cyfitter_cfg.c **** 			{0x07u, 0x05u},
 641:Generated_Source\PSoC5/cyfitter_cfg.c **** 			{0x08u, 0x07u},
 642:Generated_Source\PSoC5/cyfitter_cfg.c **** 			{0x09u, 0x03u},
 643:Generated_Source\PSoC5/cyfitter_cfg.c **** 			{0x0Bu, 0x04u},
 644:Generated_Source\PSoC5/cyfitter_cfg.c **** 			{0x0Cu, 0x07u},
 645:Generated_Source\PSoC5/cyfitter_cfg.c **** 			{0x10u, 0x10u},
 646:Generated_Source\PSoC5/cyfitter_cfg.c **** 			{0x17u, 0x10u},
 647:Generated_Source\PSoC5/cyfitter_cfg.c **** 			{0x19u, 0x03u},
 648:Generated_Source\PSoC5/cyfitter_cfg.c **** 			{0x1Au, 0x08u},
 649:Generated_Source\PSoC5/cyfitter_cfg.c **** 			{0x1Bu, 0x0Cu},
 650:Generated_Source\PSoC5/cyfitter_cfg.c **** 			{0x1Du, 0x0Au},
 651:Generated_Source\PSoC5/cyfitter_cfg.c **** 			{0x1Eu, 0x01u},
 652:Generated_Source\PSoC5/cyfitter_cfg.c **** 			{0x1Fu, 0x04u},
 653:Generated_Source\PSoC5/cyfitter_cfg.c **** 			{0x20u, 0x06u},
 654:Generated_Source\PSoC5/cyfitter_cfg.c **** 			{0x21u, 0x03u},
 655:Generated_Source\PSoC5/cyfitter_cfg.c **** 			{0x22u, 0x01u},
 656:Generated_Source\PSoC5/cyfitter_cfg.c **** 			{0x23u, 0x04u},
 657:Generated_Source\PSoC5/cyfitter_cfg.c **** 			{0x24u, 0x02u},
 658:Generated_Source\PSoC5/cyfitter_cfg.c **** 			{0x27u, 0x08u},
 659:Generated_Source\PSoC5/cyfitter_cfg.c **** 			{0x28u, 0x01u},
 660:Generated_Source\PSoC5/cyfitter_cfg.c **** 			{0x2Au, 0x06u},
 661:Generated_Source\PSoC5/cyfitter_cfg.c **** 			{0x2Bu, 0x10u},
 662:Generated_Source\PSoC5/cyfitter_cfg.c **** 			{0x2Cu, 0x04u},
 663:Generated_Source\PSoC5/cyfitter_cfg.c **** 			{0x30u, 0x08u},
 664:Generated_Source\PSoC5/cyfitter_cfg.c **** 			{0x32u, 0x10u},
 665:Generated_Source\PSoC5/cyfitter_cfg.c **** 			{0x33u, 0x10u},
 666:Generated_Source\PSoC5/cyfitter_cfg.c **** 			{0x34u, 0x07u},
 667:Generated_Source\PSoC5/cyfitter_cfg.c **** 			{0x35u, 0x0Fu},
 668:Generated_Source\PSoC5/cyfitter_cfg.c **** 			{0x3Bu, 0x20u},
 669:Generated_Source\PSoC5/cyfitter_cfg.c **** 			{0x3Eu, 0x05u},
 670:Generated_Source\PSoC5/cyfitter_cfg.c **** 			{0x40u, 0x31u},
 671:Generated_Source\PSoC5/cyfitter_cfg.c **** 			{0x41u, 0x04u},
 672:Generated_Source\PSoC5/cyfitter_cfg.c **** 			{0x42u, 0x02u},
 673:Generated_Source\PSoC5/cyfitter_cfg.c **** 			{0x44u, 0x06u},
 674:Generated_Source\PSoC5/cyfitter_cfg.c **** 			{0x45u, 0xC0u},
 675:Generated_Source\PSoC5/cyfitter_cfg.c **** 			{0x46u, 0x0Eu},
 676:Generated_Source\PSoC5/cyfitter_cfg.c **** 			{0x48u, 0x06u},
 677:Generated_Source\PSoC5/cyfitter_cfg.c **** 			{0x49u, 0xFFu},
 678:Generated_Source\PSoC5/cyfitter_cfg.c **** 			{0x4Au, 0xFFu},
 679:Generated_Source\PSoC5/cyfitter_cfg.c **** 			{0x4Bu, 0xFFu},
 680:Generated_Source\PSoC5/cyfitter_cfg.c **** 			{0x4Cu, 0x62u},
 681:Generated_Source\PSoC5/cyfitter_cfg.c **** 			{0x4Du, 0xA0u},
 682:Generated_Source\PSoC5/cyfitter_cfg.c **** 			{0x4Eu, 0xF0u},
 683:Generated_Source\PSoC5/cyfitter_cfg.c **** 			{0x4Fu, 0x41u},
 684:Generated_Source\PSoC5/cyfitter_cfg.c **** 			{0x50u, 0x0Cu},
 685:Generated_Source\PSoC5/cyfitter_cfg.c **** 			{0x54u, 0x01u},
 686:Generated_Source\PSoC5/cyfitter_cfg.c **** 			{0x58u, 0x04u},
 687:Generated_Source\PSoC5/cyfitter_cfg.c **** 			{0x59u, 0x04u},
 688:Generated_Source\PSoC5/cyfitter_cfg.c **** 			{0x5Au, 0x04u},
 689:Generated_Source\PSoC5/cyfitter_cfg.c **** 			{0x5Bu, 0x04u},
 690:Generated_Source\PSoC5/cyfitter_cfg.c **** 			{0x5Fu, 0x01u},
 691:Generated_Source\PSoC5/cyfitter_cfg.c **** 			{0x66u, 0x40u},
 692:Generated_Source\PSoC5/cyfitter_cfg.c **** 			{0x67u, 0x02u},
ARM GAS  C:\Users\RYANKE~1\AppData\Local\Temp\ccXMu97e.s 			page 21


 693:Generated_Source\PSoC5/cyfitter_cfg.c **** 			{0x69u, 0x10u},
 694:Generated_Source\PSoC5/cyfitter_cfg.c **** 			{0x6Au, 0x30u},
 695:Generated_Source\PSoC5/cyfitter_cfg.c **** 			{0x6Bu, 0x10u},
 696:Generated_Source\PSoC5/cyfitter_cfg.c **** 			{0x6Du, 0x10u},
 697:Generated_Source\PSoC5/cyfitter_cfg.c **** 			{0x6Eu, 0x10u},
 698:Generated_Source\PSoC5/cyfitter_cfg.c **** 			{0x6Fu, 0x12u},
 699:Generated_Source\PSoC5/cyfitter_cfg.c **** 			{0x85u, 0x14u},
 700:Generated_Source\PSoC5/cyfitter_cfg.c **** 			{0x86u, 0x06u},
 701:Generated_Source\PSoC5/cyfitter_cfg.c **** 			{0x8Cu, 0x06u},
 702:Generated_Source\PSoC5/cyfitter_cfg.c **** 			{0x8Eu, 0x01u},
 703:Generated_Source\PSoC5/cyfitter_cfg.c **** 			{0x91u, 0x1Cu},
 704:Generated_Source\PSoC5/cyfitter_cfg.c **** 			{0x93u, 0x02u},
 705:Generated_Source\PSoC5/cyfitter_cfg.c **** 			{0x95u, 0x10u},
 706:Generated_Source\PSoC5/cyfitter_cfg.c **** 			{0x97u, 0x0Cu},
 707:Generated_Source\PSoC5/cyfitter_cfg.c **** 			{0x9Eu, 0x03u},
 708:Generated_Source\PSoC5/cyfitter_cfg.c **** 			{0x9Fu, 0x03u},
 709:Generated_Source\PSoC5/cyfitter_cfg.c **** 			{0xA1u, 0x0Cu},
 710:Generated_Source\PSoC5/cyfitter_cfg.c **** 			{0xA2u, 0x02u},
 711:Generated_Source\PSoC5/cyfitter_cfg.c **** 			{0xA3u, 0x11u},
 712:Generated_Source\PSoC5/cyfitter_cfg.c **** 			{0xA5u, 0x09u},
 713:Generated_Source\PSoC5/cyfitter_cfg.c **** 			{0xA6u, 0x05u},
 714:Generated_Source\PSoC5/cyfitter_cfg.c **** 			{0xA7u, 0x10u},
 715:Generated_Source\PSoC5/cyfitter_cfg.c **** 			{0xAAu, 0x01u},
 716:Generated_Source\PSoC5/cyfitter_cfg.c **** 			{0xADu, 0x10u},
 717:Generated_Source\PSoC5/cyfitter_cfg.c **** 			{0xB1u, 0x1Fu},
 718:Generated_Source\PSoC5/cyfitter_cfg.c **** 			{0xB6u, 0x07u},
 719:Generated_Source\PSoC5/cyfitter_cfg.c **** 			{0xBAu, 0x80u},
 720:Generated_Source\PSoC5/cyfitter_cfg.c **** 			{0xD8u, 0x04u},
 721:Generated_Source\PSoC5/cyfitter_cfg.c **** 			{0xD9u, 0x04u},
 722:Generated_Source\PSoC5/cyfitter_cfg.c **** 			{0xDFu, 0x01u},
 723:Generated_Source\PSoC5/cyfitter_cfg.c **** 			{0x00u, 0x10u},
 724:Generated_Source\PSoC5/cyfitter_cfg.c **** 			{0x01u, 0x02u},
 725:Generated_Source\PSoC5/cyfitter_cfg.c **** 			{0x02u, 0x10u},
 726:Generated_Source\PSoC5/cyfitter_cfg.c **** 			{0x03u, 0x02u},
 727:Generated_Source\PSoC5/cyfitter_cfg.c **** 			{0x04u, 0x20u},
 728:Generated_Source\PSoC5/cyfitter_cfg.c **** 			{0x05u, 0x64u},
 729:Generated_Source\PSoC5/cyfitter_cfg.c **** 			{0x07u, 0x01u},
 730:Generated_Source\PSoC5/cyfitter_cfg.c **** 			{0x08u, 0x01u},
 731:Generated_Source\PSoC5/cyfitter_cfg.c **** 			{0x09u, 0x80u},
 732:Generated_Source\PSoC5/cyfitter_cfg.c **** 			{0x0Au, 0x04u},
 733:Generated_Source\PSoC5/cyfitter_cfg.c **** 			{0x0Bu, 0x80u},
 734:Generated_Source\PSoC5/cyfitter_cfg.c **** 			{0x0Eu, 0x02u},
 735:Generated_Source\PSoC5/cyfitter_cfg.c **** 			{0x10u, 0x20u},
 736:Generated_Source\PSoC5/cyfitter_cfg.c **** 			{0x12u, 0x01u},
 737:Generated_Source\PSoC5/cyfitter_cfg.c **** 			{0x13u, 0x12u},
 738:Generated_Source\PSoC5/cyfitter_cfg.c **** 			{0x16u, 0xC8u},
 739:Generated_Source\PSoC5/cyfitter_cfg.c **** 			{0x17u, 0x08u},
 740:Generated_Source\PSoC5/cyfitter_cfg.c **** 			{0x19u, 0x08u},
 741:Generated_Source\PSoC5/cyfitter_cfg.c **** 			{0x1Au, 0x04u},
 742:Generated_Source\PSoC5/cyfitter_cfg.c **** 			{0x1Bu, 0x01u},
 743:Generated_Source\PSoC5/cyfitter_cfg.c **** 			{0x1Eu, 0x02u},
 744:Generated_Source\PSoC5/cyfitter_cfg.c **** 			{0x1Fu, 0x80u},
 745:Generated_Source\PSoC5/cyfitter_cfg.c **** 			{0x21u, 0x10u},
 746:Generated_Source\PSoC5/cyfitter_cfg.c **** 			{0x22u, 0x14u},
 747:Generated_Source\PSoC5/cyfitter_cfg.c **** 			{0x23u, 0x08u},
 748:Generated_Source\PSoC5/cyfitter_cfg.c **** 			{0x27u, 0x40u},
 749:Generated_Source\PSoC5/cyfitter_cfg.c **** 			{0x29u, 0x04u},
ARM GAS  C:\Users\RYANKE~1\AppData\Local\Temp\ccXMu97e.s 			page 22


 750:Generated_Source\PSoC5/cyfitter_cfg.c **** 			{0x2Au, 0x20u},
 751:Generated_Source\PSoC5/cyfitter_cfg.c **** 			{0x2Bu, 0xA0u},
 752:Generated_Source\PSoC5/cyfitter_cfg.c **** 			{0x2Eu, 0x80u},
 753:Generated_Source\PSoC5/cyfitter_cfg.c **** 			{0x2Fu, 0xA0u},
 754:Generated_Source\PSoC5/cyfitter_cfg.c **** 			{0x30u, 0x40u},
 755:Generated_Source\PSoC5/cyfitter_cfg.c **** 			{0x31u, 0x40u},
 756:Generated_Source\PSoC5/cyfitter_cfg.c **** 			{0x32u, 0x18u},
 757:Generated_Source\PSoC5/cyfitter_cfg.c **** 			{0x37u, 0x49u},
 758:Generated_Source\PSoC5/cyfitter_cfg.c **** 			{0x38u, 0x20u},
 759:Generated_Source\PSoC5/cyfitter_cfg.c **** 			{0x3Au, 0x08u},
 760:Generated_Source\PSoC5/cyfitter_cfg.c **** 			{0x3Fu, 0x04u},
 761:Generated_Source\PSoC5/cyfitter_cfg.c **** 			{0x41u, 0x86u},
 762:Generated_Source\PSoC5/cyfitter_cfg.c **** 			{0x42u, 0x04u},
 763:Generated_Source\PSoC5/cyfitter_cfg.c **** 			{0x43u, 0x02u},
 764:Generated_Source\PSoC5/cyfitter_cfg.c **** 			{0x49u, 0x02u},
 765:Generated_Source\PSoC5/cyfitter_cfg.c **** 			{0x4Au, 0x04u},
 766:Generated_Source\PSoC5/cyfitter_cfg.c **** 			{0x51u, 0x40u},
 767:Generated_Source\PSoC5/cyfitter_cfg.c **** 			{0x58u, 0x01u},
 768:Generated_Source\PSoC5/cyfitter_cfg.c **** 			{0x59u, 0x28u},
 769:Generated_Source\PSoC5/cyfitter_cfg.c **** 			{0x5Au, 0x40u},
 770:Generated_Source\PSoC5/cyfitter_cfg.c **** 			{0x90u, 0x30u},
 771:Generated_Source\PSoC5/cyfitter_cfg.c **** 			{0x91u, 0x08u},
 772:Generated_Source\PSoC5/cyfitter_cfg.c **** 			{0x92u, 0x40u},
 773:Generated_Source\PSoC5/cyfitter_cfg.c **** 			{0x93u, 0x94u},
 774:Generated_Source\PSoC5/cyfitter_cfg.c **** 			{0x95u, 0xA0u},
 775:Generated_Source\PSoC5/cyfitter_cfg.c **** 			{0x96u, 0x08u},
 776:Generated_Source\PSoC5/cyfitter_cfg.c **** 			{0x98u, 0x40u},
 777:Generated_Source\PSoC5/cyfitter_cfg.c **** 			{0x99u, 0x04u},
 778:Generated_Source\PSoC5/cyfitter_cfg.c **** 			{0x9Au, 0x79u},
 779:Generated_Source\PSoC5/cyfitter_cfg.c **** 			{0x9Bu, 0x02u},
 780:Generated_Source\PSoC5/cyfitter_cfg.c **** 			{0x9Fu, 0x48u},
 781:Generated_Source\PSoC5/cyfitter_cfg.c **** 			{0xA0u, 0x20u},
 782:Generated_Source\PSoC5/cyfitter_cfg.c **** 			{0xA1u, 0x82u},
 783:Generated_Source\PSoC5/cyfitter_cfg.c **** 			{0xA2u, 0x0Cu},
 784:Generated_Source\PSoC5/cyfitter_cfg.c **** 			{0xA6u, 0x01u},
 785:Generated_Source\PSoC5/cyfitter_cfg.c **** 			{0xA7u, 0x01u},
 786:Generated_Source\PSoC5/cyfitter_cfg.c **** 			{0xA9u, 0x10u},
 787:Generated_Source\PSoC5/cyfitter_cfg.c **** 			{0xB5u, 0x80u},
 788:Generated_Source\PSoC5/cyfitter_cfg.c **** 			{0xB6u, 0x20u},
 789:Generated_Source\PSoC5/cyfitter_cfg.c **** 			{0xC0u, 0xAFu},
 790:Generated_Source\PSoC5/cyfitter_cfg.c **** 			{0xC2u, 0x8Bu},
 791:Generated_Source\PSoC5/cyfitter_cfg.c **** 			{0xC4u, 0x7Fu},
 792:Generated_Source\PSoC5/cyfitter_cfg.c **** 			{0xCAu, 0xD7u},
 793:Generated_Source\PSoC5/cyfitter_cfg.c **** 			{0xCCu, 0xDEu},
 794:Generated_Source\PSoC5/cyfitter_cfg.c **** 			{0xCEu, 0x46u},
 795:Generated_Source\PSoC5/cyfitter_cfg.c **** 			{0xD0u, 0x0Fu},
 796:Generated_Source\PSoC5/cyfitter_cfg.c **** 			{0xD2u, 0x04u},
 797:Generated_Source\PSoC5/cyfitter_cfg.c **** 			{0xD6u, 0x0Fu},
 798:Generated_Source\PSoC5/cyfitter_cfg.c **** 			{0xECu, 0x04u},
 799:Generated_Source\PSoC5/cyfitter_cfg.c **** 			{0x32u, 0x20u},
 800:Generated_Source\PSoC5/cyfitter_cfg.c **** 			{0xCCu, 0x10u},
 801:Generated_Source\PSoC5/cyfitter_cfg.c **** 			{0xA6u, 0x20u},
 802:Generated_Source\PSoC5/cyfitter_cfg.c **** 			{0xA6u, 0x20u},
 803:Generated_Source\PSoC5/cyfitter_cfg.c **** 			{0x86u, 0x20u},
 804:Generated_Source\PSoC5/cyfitter_cfg.c **** 			{0xA6u, 0x20u},
 805:Generated_Source\PSoC5/cyfitter_cfg.c **** 			{0xE6u, 0x40u},
 806:Generated_Source\PSoC5/cyfitter_cfg.c **** 			{0x09u, 0x20u},
ARM GAS  C:\Users\RYANKE~1\AppData\Local\Temp\ccXMu97e.s 			page 23


 807:Generated_Source\PSoC5/cyfitter_cfg.c **** 			{0x0Cu, 0x80u},
 808:Generated_Source\PSoC5/cyfitter_cfg.c **** 			{0x63u, 0x08u},
 809:Generated_Source\PSoC5/cyfitter_cfg.c **** 			{0xA4u, 0x80u},
 810:Generated_Source\PSoC5/cyfitter_cfg.c **** 			{0xA8u, 0x80u},
 811:Generated_Source\PSoC5/cyfitter_cfg.c **** 			{0xC2u, 0x03u},
 812:Generated_Source\PSoC5/cyfitter_cfg.c **** 			{0xD8u, 0x02u},
 813:Generated_Source\PSoC5/cyfitter_cfg.c **** 			{0xABu, 0x04u},
 814:Generated_Source\PSoC5/cyfitter_cfg.c **** 			{0xB5u, 0x20u},
 815:Generated_Source\PSoC5/cyfitter_cfg.c **** 			{0xEEu, 0x02u},
 816:Generated_Source\PSoC5/cyfitter_cfg.c **** 			{0x00u, 0x01u},
 817:Generated_Source\PSoC5/cyfitter_cfg.c **** 			{0x0Cu, 0x01u},
 818:Generated_Source\PSoC5/cyfitter_cfg.c **** 			{0x10u, 0x01u},
 819:Generated_Source\PSoC5/cyfitter_cfg.c **** 			{0x1Cu, 0x01u},
 820:Generated_Source\PSoC5/cyfitter_cfg.c **** 			{0x00u, 0x03u},
 821:Generated_Source\PSoC5/cyfitter_cfg.c **** 		};
 822:Generated_Source\PSoC5/cyfitter_cfg.c **** 
 823:Generated_Source\PSoC5/cyfitter_cfg.c **** 
 824:Generated_Source\PSoC5/cyfitter_cfg.c **** 
 825:Generated_Source\PSoC5/cyfitter_cfg.c **** 		CYPACKED typedef struct {
 826:Generated_Source\PSoC5/cyfitter_cfg.c **** 			void CYFAR *address;
 827:Generated_Source\PSoC5/cyfitter_cfg.c **** 			uint16 size;
 828:Generated_Source\PSoC5/cyfitter_cfg.c **** 		} CYPACKED_ATTR cfg_memset_t;
 829:Generated_Source\PSoC5/cyfitter_cfg.c **** 
 830:Generated_Source\PSoC5/cyfitter_cfg.c **** 		static const cfg_memset_t CYCODE cfg_memset_list [] = {
 831:Generated_Source\PSoC5/cyfitter_cfg.c **** 			/* address, size */
 832:Generated_Source\PSoC5/cyfitter_cfg.c **** 			{(void CYFAR *)(CYREG_PRT0_DR), 16u},
 833:Generated_Source\PSoC5/cyfitter_cfg.c **** 			{(void CYFAR *)(CYREG_PRT2_DR), 80u},
 834:Generated_Source\PSoC5/cyfitter_cfg.c **** 			{(void CYFAR *)(CYREG_PRT12_DR), 16u},
 835:Generated_Source\PSoC5/cyfitter_cfg.c **** 			{(void CYFAR *)(CYDEV_UCFG_B0_P0_U0_BASE), 4096u},
 836:Generated_Source\PSoC5/cyfitter_cfg.c **** 			{(void CYFAR *)(CYDEV_UCFG_B1_P2_U0_BASE), 2048u},
 837:Generated_Source\PSoC5/cyfitter_cfg.c **** 			{(void CYFAR *)(CYDEV_UCFG_DSI0_BASE), 2560u},
 838:Generated_Source\PSoC5/cyfitter_cfg.c **** 			{(void CYFAR *)(CYDEV_UCFG_DSI12_BASE), 512u},
 839:Generated_Source\PSoC5/cyfitter_cfg.c **** 			{(void CYFAR *)(CYREG_BCTL0_MDCLK_EN), 32u},
 840:Generated_Source\PSoC5/cyfitter_cfg.c **** 		};
 841:Generated_Source\PSoC5/cyfitter_cfg.c **** 
 842:Generated_Source\PSoC5/cyfitter_cfg.c **** 		uint8 CYDATA i;
 843:Generated_Source\PSoC5/cyfitter_cfg.c **** 
 844:Generated_Source\PSoC5/cyfitter_cfg.c **** 		/* Zero out critical memory blocks before beginning configuration */
 845:Generated_Source\PSoC5/cyfitter_cfg.c **** 		for (i = 0u; i < (sizeof(cfg_memset_list)/sizeof(cfg_memset_list[0])); i++)
 415              		.loc 1 845 0
 416 000e 0024     		movs	r4, #0
 417 0010 0CE0     		b	.L30
 418              	.LVL32:
 419              	.L31:
 420              	.LBB4:
 846:Generated_Source\PSoC5/cyfitter_cfg.c **** 		{
 847:Generated_Source\PSoC5/cyfitter_cfg.c **** 			const cfg_memset_t CYCODE * CYDATA ms = &cfg_memset_list[i];
 848:Generated_Source\PSoC5/cyfitter_cfg.c **** 			CYMEMZERO(ms->address, (size_t)(uint32)(ms->size));
 421              		.loc 1 848 0 discriminator 3
 422 0012 2849     		ldr	r1, .L33+4
 423 0014 6300     		lsls	r3, r4, #1
 424 0016 1A19     		adds	r2, r3, r4
 425 0018 5200     		lsls	r2, r2, #1
 426 001a 0A44     		add	r2, r2, r1
 427 001c 2344     		add	r3, r3, r4
 428 001e 5B00     		lsls	r3, r3, #1
 429 0020 C858     		ldr	r0, [r1, r3]	@ unaligned
ARM GAS  C:\Users\RYANKE~1\AppData\Local\Temp\ccXMu97e.s 			page 24


 430 0022 9188     		ldrh	r1, [r2, #4]
 431 0024 FFF7FEFF 		bl	CYMEMZERO
 432              	.LVL33:
 433              	.LBE4:
 845:Generated_Source\PSoC5/cyfitter_cfg.c **** 		{
 434              		.loc 1 845 0 discriminator 3
 435 0028 0134     		adds	r4, r4, #1
 436              	.LVL34:
 437 002a E4B2     		uxtb	r4, r4
 438              	.LVL35:
 439              	.L30:
 845:Generated_Source\PSoC5/cyfitter_cfg.c **** 		{
 440              		.loc 1 845 0 is_stmt 0 discriminator 1
 441 002c 072C     		cmp	r4, #7
 442 002e F0D9     		bls	.L31
 849:Generated_Source\PSoC5/cyfitter_cfg.c **** 		}
 850:Generated_Source\PSoC5/cyfitter_cfg.c **** 
 851:Generated_Source\PSoC5/cyfitter_cfg.c **** 		cfg_write_bytes32(cy_cfg_addr_table, cy_cfg_data_table);
 443              		.loc 1 851 0 is_stmt 1
 444 0030 204C     		ldr	r4, .L33+4
 445              	.LVL36:
 446 0032 04F13000 		add	r0, r4, #48
 447 0036 04F17801 		add	r1, r4, #120
 448 003a FFF7FEFF 		bl	cfg_write_bytes32
 449              	.LVL37:
 852:Generated_Source\PSoC5/cyfitter_cfg.c **** 
 853:Generated_Source\PSoC5/cyfitter_cfg.c **** 		/* Enable digital routing */
 854:Generated_Source\PSoC5/cyfitter_cfg.c **** 		CY_SET_XTND_REG8((void CYFAR *)CYREG_BCTL0_BANK_CTL, CY_GET_XTND_REG8((void CYFAR *)CYREG_BCTL0_B
 450              		.loc 1 854 0
 451 003e 1E4A     		ldr	r2, .L33+8
 452 0040 1378     		ldrb	r3, [r2]	@ zero_extendqisi2
 453 0042 43F00203 		orr	r3, r3, #2
 454 0046 1370     		strb	r3, [r2]
 855:Generated_Source\PSoC5/cyfitter_cfg.c **** 		CY_SET_XTND_REG8((void CYFAR *)CYREG_BCTL1_BANK_CTL, CY_GET_XTND_REG8((void CYFAR *)CYREG_BCTL1_B
 455              		.loc 1 855 0
 456 0048 1032     		adds	r2, r2, #16
 457 004a 1378     		ldrb	r3, [r2]	@ zero_extendqisi2
 458 004c 43F00203 		orr	r3, r3, #2
 459 0050 1370     		strb	r3, [r2]
 856:Generated_Source\PSoC5/cyfitter_cfg.c **** 
 857:Generated_Source\PSoC5/cyfitter_cfg.c **** 		/* Enable UDB array */
 858:Generated_Source\PSoC5/cyfitter_cfg.c **** 		CY_SET_XTND_REG8((void CYFAR *)CYREG_PM_ACT_CFG0, CY_GET_XTND_REG8((void CYFAR *)CYREG_PM_ACT_CFG
 460              		.loc 1 858 0
 461 0052 1A4D     		ldr	r5, .L33+12
 462 0054 2B78     		ldrb	r3, [r5]	@ zero_extendqisi2
 463 0056 43F04003 		orr	r3, r3, #64
 464 005a 2B70     		strb	r3, [r5]
 859:Generated_Source\PSoC5/cyfitter_cfg.c **** 		CY_SET_XTND_REG8((void CYFAR *)CYREG_PM_AVAIL_CR2, CY_GET_XTND_REG8((void CYFAR *)CYREG_PM_AVAIL_
 465              		.loc 1 859 0
 466 005c A2F58632 		sub	r2, r2, #68608
 467 0060 513A     		subs	r2, r2, #81
 468 0062 1378     		ldrb	r3, [r2]	@ zero_extendqisi2
 469 0064 43F01003 		orr	r3, r3, #16
 470 0068 1370     		strb	r3, [r2]
 471              	.LBE3:
 860:Generated_Source\PSoC5/cyfitter_cfg.c **** 	}
 861:Generated_Source\PSoC5/cyfitter_cfg.c **** 
ARM GAS  C:\Users\RYANKE~1\AppData\Local\Temp\ccXMu97e.s 			page 25


 862:Generated_Source\PSoC5/cyfitter_cfg.c **** 
 863:Generated_Source\PSoC5/cyfitter_cfg.c **** 	/* Perform second pass device configuration. These items must be configured in specific order afte
 864:Generated_Source\PSoC5/cyfitter_cfg.c **** 	CYCONFIGCPYCODE((void CYFAR *)(CYREG_PRT15_DM0), (const void CYCODE *)(BS_IOPINS0_8_VAL), 8u);
 472              		.loc 1 864 0
 473 006a 1548     		ldr	r0, .L33+16
 474 006c 04F58261 		add	r1, r4, #1040
 475 0070 0822     		movs	r2, #8
 476 0072 FFF7FEFF 		bl	CYCONFIGCPYCODE
 477              	.LVL38:
 865:Generated_Source\PSoC5/cyfitter_cfg.c **** 	CYCONFIGCPYCODE((void CYFAR *)(CYREG_PRT1_DR), (const void CYCODE *)(BS_IOPINS0_1_VAL), 10u);
 478              		.loc 1 865 0
 479 0076 1348     		ldr	r0, .L33+20
 480 0078 04F58361 		add	r1, r4, #1048
 481 007c 0A22     		movs	r2, #10
 482 007e FFF7FEFF 		bl	CYCONFIGCPYCODE
 483              	.LVL39:
 866:Generated_Source\PSoC5/cyfitter_cfg.c **** 	/* Switch Boost to the precision bandgap reference from its internal reference */
 867:Generated_Source\PSoC5/cyfitter_cfg.c **** 	CY_SET_REG8((void CYXDATA *)CYREG_BOOST_CR2, (CY_GET_REG8((void CYXDATA *)CYREG_BOOST_CR2) | 0x08u
 484              		.loc 1 867 0
 485 0082 114A     		ldr	r2, .L33+24
 486 0084 1378     		ldrb	r3, [r2]	@ zero_extendqisi2
 487 0086 43F00803 		orr	r3, r3, #8
 488 008a 1370     		strb	r3, [r2]
 868:Generated_Source\PSoC5/cyfitter_cfg.c **** 
 869:Generated_Source\PSoC5/cyfitter_cfg.c **** 	/* Set Flash Cycles based on max possible frequency in case a glitch occurs during ClockSetup(). *
 870:Generated_Source\PSoC5/cyfitter_cfg.c **** 	CY_SET_XTND_REG8((void CYFAR *)(CYREG_CACHE_CC_CTL), (((CYDEV_INSTRUCT_CACHE_ENABLED) != 0) ? 0x61
 489              		.loc 1 870 0
 490 008c 0F4C     		ldr	r4, .L33+28
 491 008e 6123     		movs	r3, #97
 492 0090 2370     		strb	r3, [r4]
 871:Generated_Source\PSoC5/cyfitter_cfg.c **** 	/* Setup clocks based on selections from Clock DWR */
 872:Generated_Source\PSoC5/cyfitter_cfg.c **** 	ClockSetup();
 493              		.loc 1 872 0
 494 0092 FFF7FEFF 		bl	ClockSetup
 495              	.LVL40:
 873:Generated_Source\PSoC5/cyfitter_cfg.c **** 	/* Set Flash Cycles based on newly configured 24.00MHz Bus Clock. */
 874:Generated_Source\PSoC5/cyfitter_cfg.c **** 	CY_SET_XTND_REG8((void CYFAR *)(CYREG_CACHE_CC_CTL), (((CYDEV_INSTRUCT_CACHE_ENABLED) != 0) ? 0x81
 496              		.loc 1 874 0
 497 0096 8123     		movs	r3, #129
 498 0098 2370     		strb	r3, [r4]
 875:Generated_Source\PSoC5/cyfitter_cfg.c **** 	CY_SET_XTND_REG8((void CYFAR *)(CYREG_PANTHER_WAITPIPE), 0x01u);
 499              		.loc 1 875 0
 500 009a 0122     		movs	r2, #1
 501 009c 0C4B     		ldr	r3, .L33+32
 502 009e 1A70     		strb	r2, [r3]
 876:Generated_Source\PSoC5/cyfitter_cfg.c **** 
 877:Generated_Source\PSoC5/cyfitter_cfg.c **** 	/* Perform basic analog initialization to defaults */
 878:Generated_Source\PSoC5/cyfitter_cfg.c **** 	AnalogSetDefault();
 503              		.loc 1 878 0
 504 00a0 FFF7FEFF 		bl	AnalogSetDefault
 505              	.LVL41:
 879:Generated_Source\PSoC5/cyfitter_cfg.c **** 
 880:Generated_Source\PSoC5/cyfitter_cfg.c **** 	/* Configure alternate active mode */
 881:Generated_Source\PSoC5/cyfitter_cfg.c **** 	CYCONFIGCPY((void CYFAR *)CYDEV_PM_STBY_BASE, (const void CYFAR *)CYDEV_PM_ACT_BASE, 14u);
 506              		.loc 1 881 0
 507 00a4 0B48     		ldr	r0, .L33+36
 508 00a6 2946     		mov	r1, r5
ARM GAS  C:\Users\RYANKE~1\AppData\Local\Temp\ccXMu97e.s 			page 26


 509 00a8 0E22     		movs	r2, #14
 510 00aa FFF7FEFF 		bl	CYCONFIGCPY
 511              	.LVL42:
 512 00ae 38BD     		pop	{r3, r4, r5, pc}
 513              	.L34:
 514              		.align	2
 515              	.L33:
 516 00b0 E8460040 		.word	1073759976
 517 00b4 00000000 		.word	.LANCHOR0
 518 00b8 03500140 		.word	1073827843
 519 00bc A0430040 		.word	1073759136
 520 00c0 F2510040 		.word	1073762802
 521 00c4 10510040 		.word	1073762576
 522 00c8 22430040 		.word	1073759010
 523 00cc 00480040 		.word	1073760256
 524 00d0 04000840 		.word	1074266116
 525 00d4 B0430040 		.word	1073759152
 526              		.cfi_endproc
 527              	.LFE8:
 528              		.size	cyfitter_cfg, .-cyfitter_cfg
 529              		.section	.rodata
 530              		.align	2
 531              		.set	.LANCHOR0,. + 0
 532              		.type	cfg_memset_list.4884, %object
 533              		.size	cfg_memset_list.4884, 48
 534              	cfg_memset_list.4884:
 535 0000 00510040 		.word	1073762560
 536 0004 1000     		.short	16
 537 0006 20510040 		.4byte	1073762592
 538 000a 5000     		.short	80
 539 000c C0510040 		.word	1073762752
 540 0010 1000     		.short	16
 541 0012 00000140 		.4byte	1073807360
 542 0016 0010     		.short	4096
 543 0018 00140140 		.word	1073812480
 544 001c 0008     		.short	2048
 545 001e 00400140 		.4byte	1073823744
 546 0022 000A     		.short	2560
 547 0024 004C0140 		.word	1073826816
 548 0028 0002     		.short	512
 549 002a 00500140 		.4byte	1073827840
 550 002e 2000     		.short	32
 551              		.type	cy_cfg_addr_table.4878, %object
 552              		.size	cy_cfg_addr_table.4878, 72
 553              	cy_cfg_addr_table.4878:
 554 0030 02520040 		.word	1073762818
 555 0034 01640040 		.word	1073767425
 556 0038 02650040 		.word	1073767682
 557 003c 01070140 		.word	1073809153
 558 0040 4F080140 		.word	1073809487
 559 0044 32090140 		.word	1073809714
 560 0048 49180140 		.word	1073813577
 561 004c 45190140 		.word	1073813829
 562 0050 551A0140 		.word	1073814101
 563 0054 4C1B0140 		.word	1073814348
 564 0058 02400140 		.word	1073823746
 565 005c 01410140 		.word	1073824001
ARM GAS  C:\Users\RYANKE~1\AppData\Local\Temp\ccXMu97e.s 			page 27


 566 0060 01420140 		.word	1073824257
 567 0064 03430140 		.word	1073824515
 568 0068 074C0140 		.word	1073826823
 569 006c 034D0140 		.word	1073827075
 570 0070 04500140 		.word	1073827844
 571 0074 01510140 		.word	1073828097
 572              		.type	cy_cfg_data_table.4879, %object
 573              		.size	cy_cfg_data_table.4879, 920
 574              	cy_cfg_data_table.4879:
 575 0078 09       		.byte	9
 576 0079 20       		.byte	32
 577 007a 0C       		.byte	12
 578 007b 40       		.byte	64
 579 007c 89       		.byte	-119
 580 007d 38       		.byte	56
 581 007e 88       		.byte	-120
 582 007f 72       		.byte	114
 583 0080 8A       		.byte	-118
 584 0081 0F       		.byte	15
 585 0082 E6       		.byte	-26
 586 0083 02       		.byte	2
 587 0084 01       		.byte	1
 588 0085 10       		.byte	16
 589 0086 02       		.byte	2
 590 0087 08       		.byte	8
 591 0088 06       		.byte	6
 592 0089 0C       		.byte	12
 593 008a 07       		.byte	7
 594 008b 08       		.byte	8
 595 008c 08       		.byte	8
 596 008d 40       		.byte	64
 597 008e 0B       		.byte	11
 598 008f 21       		.byte	33
 599 0090 0C       		.byte	12
 600 0091 40       		.byte	64
 601 0092 0F       		.byte	15
 602 0093 46       		.byte	70
 603 0094 10       		.byte	16
 604 0095 40       		.byte	64
 605 0096 11       		.byte	17
 606 0097 18       		.byte	24
 607 0098 14       		.byte	20
 608 0099 40       		.byte	64
 609 009a 15       		.byte	21
 610 009b 18       		.byte	24
 611 009c 1B       		.byte	27
 612 009d 21       		.byte	33
 613 009e 20       		.byte	32
 614 009f 0C       		.byte	12
 615 00a0 22       		.byte	34
 616 00a1 13       		.byte	19
 617 00a2 24       		.byte	36
 618 00a3 11       		.byte	17
 619 00a4 25       		.byte	37
 620 00a5 01       		.byte	1
 621 00a6 26       		.byte	38
 622 00a7 06       		.byte	6
ARM GAS  C:\Users\RYANKE~1\AppData\Local\Temp\ccXMu97e.s 			page 28


 623 00a8 27       		.byte	39
 624 00a9 02       		.byte	2
 625 00aa 28       		.byte	40
 626 00ab 20       		.byte	32
 627 00ac 29       		.byte	41
 628 00ad 01       		.byte	1
 629 00ae 2A       		.byte	42
 630 00af 03       		.byte	3
 631 00b0 2B       		.byte	43
 632 00b1 04       		.byte	4
 633 00b2 2C       		.byte	44
 634 00b3 11       		.byte	17
 635 00b4 2E       		.byte	46
 636 00b5 0E       		.byte	14
 637 00b6 2F       		.byte	47
 638 00b7 21       		.byte	33
 639 00b8 32       		.byte	50
 640 00b9 30       		.byte	48
 641 00ba 33       		.byte	51
 642 00bb 60       		.byte	96
 643 00bc 34       		.byte	52
 644 00bd 40       		.byte	64
 645 00be 35       		.byte	53
 646 00bf 18       		.byte	24
 647 00c0 36       		.byte	54
 648 00c1 0F       		.byte	15
 649 00c2 37       		.byte	55
 650 00c3 07       		.byte	7
 651 00c4 38       		.byte	56
 652 00c5 08       		.byte	8
 653 00c6 39       		.byte	57
 654 00c7 20       		.byte	32
 655 00c8 3A       		.byte	58
 656 00c9 80       		.byte	-128
 657 00ca 3B       		.byte	59
 658 00cb 82       		.byte	-126
 659 00cc 3E       		.byte	62
 660 00cd 10       		.byte	16
 661 00ce 3F       		.byte	63
 662 00cf 14       		.byte	20
 663 00d0 40       		.byte	64
 664 00d1 03       		.byte	3
 665 00d2 46       		.byte	70
 666 00d3 04       		.byte	4
 667 00d4 49       		.byte	73
 668 00d5 FF       		.byte	-1
 669 00d6 4A       		.byte	74
 670 00d7 07       		.byte	7
 671 00d8 4B       		.byte	75
 672 00d9 FF       		.byte	-1
 673 00da 4C       		.byte	76
 674 00db 40       		.byte	64
 675 00dc 4D       		.byte	77
 676 00dd 20       		.byte	32
 677 00de 4E       		.byte	78
 678 00df F0       		.byte	-16
 679 00e0 4F       		.byte	79
ARM GAS  C:\Users\RYANKE~1\AppData\Local\Temp\ccXMu97e.s 			page 29


 680 00e1 05       		.byte	5
 681 00e2 50       		.byte	80
 682 00e3 08       		.byte	8
 683 00e4 58       		.byte	88
 684 00e5 04       		.byte	4
 685 00e6 59       		.byte	89
 686 00e7 04       		.byte	4
 687 00e8 5A       		.byte	90
 688 00e9 04       		.byte	4
 689 00ea 5F       		.byte	95
 690 00eb 01       		.byte	1
 691 00ec 60       		.byte	96
 692 00ed 40       		.byte	64
 693 00ee 61       		.byte	97
 694 00ef A8       		.byte	-88
 695 00f0 62       		.byte	98
 696 00f1 40       		.byte	64
 697 00f2 63       		.byte	99
 698 00f3 20       		.byte	32
 699 00f4 86       		.byte	-122
 700 00f5 01       		.byte	1
 701 00f6 8A       		.byte	-118
 702 00f7 02       		.byte	2
 703 00f8 8E       		.byte	-114
 704 00f9 02       		.byte	2
 705 00fa 8F       		.byte	-113
 706 00fb 01       		.byte	1
 707 00fc 90       		.byte	-112
 708 00fd 02       		.byte	2
 709 00fe 96       		.byte	-106
 710 00ff 01       		.byte	1
 711 0100 9E       		.byte	-98
 712 0101 01       		.byte	1
 713 0102 A4       		.byte	-92
 714 0103 01       		.byte	1
 715 0104 A7       		.byte	-89
 716 0105 01       		.byte	1
 717 0106 A8       		.byte	-88
 718 0107 02       		.byte	2
 719 0108 AC       		.byte	-84
 720 0109 01       		.byte	1
 721 010a B0       		.byte	-80
 722 010b 01       		.byte	1
 723 010c B2       		.byte	-78
 724 010d 02       		.byte	2
 725 010e B5       		.byte	-75
 726 010f 01       		.byte	1
 727 0110 B8       		.byte	-72
 728 0111 08       		.byte	8
 729 0112 BE       		.byte	-66
 730 0113 01       		.byte	1
 731 0114 BF       		.byte	-65
 732 0115 10       		.byte	16
 733 0116 D4       		.byte	-44
 734 0117 18       		.byte	24
 735 0118 D6       		.byte	-42
 736 0119 04       		.byte	4
ARM GAS  C:\Users\RYANKE~1\AppData\Local\Temp\ccXMu97e.s 			page 30


 737 011a D8       		.byte	-40
 738 011b 04       		.byte	4
 739 011c D9       		.byte	-39
 740 011d 04       		.byte	4
 741 011e DB       		.byte	-37
 742 011f 04       		.byte	4
 743 0120 DF       		.byte	-33
 744 0121 01       		.byte	1
 745 0122 00       		.byte	0
 746 0123 10       		.byte	16
 747 0124 02       		.byte	2
 748 0125 21       		.byte	33
 749 0126 04       		.byte	4
 750 0127 10       		.byte	16
 751 0128 05       		.byte	5
 752 0129 04       		.byte	4
 753 012a 06       		.byte	6
 754 012b 41       		.byte	65
 755 012c 07       		.byte	7
 756 012d 02       		.byte	2
 757 012e 08       		.byte	8
 758 012f 40       		.byte	64
 759 0130 09       		.byte	9
 760 0131 06       		.byte	6
 761 0132 0A       		.byte	10
 762 0133 01       		.byte	1
 763 0134 0D       		.byte	13
 764 0135 02       		.byte	2
 765 0136 0F       		.byte	15
 766 0137 10       		.byte	16
 767 0138 12       		.byte	18
 768 0139 02       		.byte	2
 769 013a 13       		.byte	19
 770 013b 18       		.byte	24
 771 013c 14       		.byte	20
 772 013d 41       		.byte	65
 773 013e 16       		.byte	22
 774 013f 08       		.byte	8
 775 0140 17       		.byte	23
 776 0141 08       		.byte	8
 777 0142 19       		.byte	25
 778 0143 08       		.byte	8
 779 0144 1A       		.byte	26
 780 0145 40       		.byte	64
 781 0146 1C       		.byte	28
 782 0147 04       		.byte	4
 783 0148 1D       		.byte	29
 784 0149 04       		.byte	4
 785 014a 1E       		.byte	30
 786 014b 01       		.byte	1
 787 014c 23       		.byte	35
 788 014d 04       		.byte	4
 789 014e 25       		.byte	37
 790 014f 4A       		.byte	74
 791 0150 26       		.byte	38
 792 0151 04       		.byte	4
 793 0152 27       		.byte	39
ARM GAS  C:\Users\RYANKE~1\AppData\Local\Temp\ccXMu97e.s 			page 31


 794 0153 04       		.byte	4
 795 0154 29       		.byte	41
 796 0155 08       		.byte	8
 797 0156 2D       		.byte	45
 798 0157 80       		.byte	-128
 799 0158 2F       		.byte	47
 800 0159 28       		.byte	40
 801 015a 34       		.byte	52
 802 015b 01       		.byte	1
 803 015c 36       		.byte	54
 804 015d 03       		.byte	3
 805 015e 37       		.byte	55
 806 015f 28       		.byte	40
 807 0160 39       		.byte	57
 808 0161 80       		.byte	-128
 809 0162 3D       		.byte	61
 810 0163 A0       		.byte	-96
 811 0164 3E       		.byte	62
 812 0165 29       		.byte	41
 813 0166 47       		.byte	71
 814 0167 04       		.byte	4
 815 0168 54       		.byte	84
 816 0169 04       		.byte	4
 817 016a 55       		.byte	85
 818 016b 04       		.byte	4
 819 016c 56       		.byte	86
 820 016d 48       		.byte	72
 821 016e 5A       		.byte	90
 822 016f 02       		.byte	2
 823 0170 63       		.byte	99
 824 0171 46       		.byte	70
 825 0172 87       		.byte	-121
 826 0173 40       		.byte	64
 827 0174 C0       		.byte	-64
 828 0175 F7       		.byte	-9
 829 0176 C2       		.byte	-62
 830 0177 3D       		.byte	61
 831 0178 C4       		.byte	-60
 832 0179 F7       		.byte	-9
 833 017a CA       		.byte	-54
 834 017b 72       		.byte	114
 835 017c CC       		.byte	-52
 836 017d E0       		.byte	-32
 837 017e CE       		.byte	-50
 838 017f F8       		.byte	-8
 839 0180 D0       		.byte	-48
 840 0181 40       		.byte	64
 841 0182 D6       		.byte	-42
 842 0183 01       		.byte	1
 843 0184 D8       		.byte	-40
 844 0185 0D       		.byte	13
 845 0186 09       		.byte	9
 846 0187 01       		.byte	1
 847 0188 0B       		.byte	11
 848 0189 02       		.byte	2
 849 018a 15       		.byte	21
 850 018b 07       		.byte	7
ARM GAS  C:\Users\RYANKE~1\AppData\Local\Temp\ccXMu97e.s 			page 32


 851 018c 19       		.byte	25
 852 018d 02       		.byte	2
 853 018e 1B       		.byte	27
 854 018f 05       		.byte	5
 855 0190 24       		.byte	36
 856 0191 01       		.byte	1
 857 0192 25       		.byte	37
 858 0193 07       		.byte	7
 859 0194 28       		.byte	40
 860 0195 01       		.byte	1
 861 0196 29       		.byte	41
 862 0197 04       		.byte	4
 863 0198 2B       		.byte	43
 864 0199 02       		.byte	2
 865 019a 2C       		.byte	44
 866 019b 01       		.byte	1
 867 019c 33       		.byte	51
 868 019d 07       		.byte	7
 869 019e 36       		.byte	54
 870 019f 01       		.byte	1
 871 01a0 56       		.byte	86
 872 01a1 02       		.byte	2
 873 01a2 57       		.byte	87
 874 01a3 12       		.byte	18
 875 01a4 58       		.byte	88
 876 01a5 04       		.byte	4
 877 01a6 59       		.byte	89
 878 01a7 04       		.byte	4
 879 01a8 5B       		.byte	91
 880 01a9 04       		.byte	4
 881 01aa 5F       		.byte	95
 882 01ab 01       		.byte	1
 883 01ac 80       		.byte	-128
 884 01ad 40       		.byte	64
 885 01ae 81       		.byte	-127
 886 01af 04       		.byte	4
 887 01b0 84       		.byte	-124
 888 01b1 39       		.byte	57
 889 01b2 85       		.byte	-123
 890 01b3 19       		.byte	25
 891 01b4 86       		.byte	-122
 892 01b5 04       		.byte	4
 893 01b6 87       		.byte	-121
 894 01b7 06       		.byte	6
 895 01b8 88       		.byte	-120
 896 01b9 30       		.byte	48
 897 01ba 89       		.byte	-119
 898 01bb 06       		.byte	6
 899 01bc 8C       		.byte	-116
 900 01bd 08       		.byte	8
 901 01be 90       		.byte	-112
 902 01bf 3F       		.byte	63
 903 01c0 91       		.byte	-111
 904 01c1 1F       		.byte	31
 905 01c2 94       		.byte	-108
 906 01c3 0F       		.byte	15
 907 01c4 95       		.byte	-107
ARM GAS  C:\Users\RYANKE~1\AppData\Local\Temp\ccXMu97e.s 			page 33


 908 01c5 11       		.byte	17
 909 01c6 96       		.byte	-106
 910 01c7 30       		.byte	48
 911 01c8 9A       		.byte	-102
 912 01c9 09       		.byte	9
 913 01ca 9D       		.byte	-99
 914 01cb 07       		.byte	7
 915 01cc 9E       		.byte	-98
 916 01cd 06       		.byte	6
 917 01ce 9F       		.byte	-97
 918 01cf 18       		.byte	24
 919 01d0 A0       		.byte	-96
 920 01d1 39       		.byte	57
 921 01d2 A2       		.byte	-94
 922 01d3 02       		.byte	2
 923 01d4 A3       		.byte	-93
 924 01d5 19       		.byte	25
 925 01d6 A4       		.byte	-92
 926 01d7 10       		.byte	16
 927 01d8 A5       		.byte	-91
 928 01d9 06       		.byte	6
 929 01da A7       		.byte	-89
 930 01db 19       		.byte	25
 931 01dc A8       		.byte	-88
 932 01dd 01       		.byte	1
 933 01de A9       		.byte	-87
 934 01df 02       		.byte	2
 935 01e0 AA       		.byte	-86
 936 01e1 40       		.byte	64
 937 01e2 AC       		.byte	-84
 938 01e3 20       		.byte	32
 939 01e4 B1       		.byte	-79
 940 01e5 10       		.byte	16
 941 01e6 B2       		.byte	-78
 942 01e7 3F       		.byte	63
 943 01e8 B3       		.byte	-77
 944 01e9 07       		.byte	7
 945 01ea B4       		.byte	-76
 946 01eb 40       		.byte	64
 947 01ec B7       		.byte	-73
 948 01ed 0E       		.byte	14
 949 01ee BA       		.byte	-70
 950 01ef 08       		.byte	8
 951 01f0 BB       		.byte	-69
 952 01f1 88       		.byte	-120
 953 01f2 BE       		.byte	-66
 954 01f3 10       		.byte	16
 955 01f4 C0       		.byte	-64
 956 01f5 26       		.byte	38
 957 01f6 C1       		.byte	-63
 958 01f7 05       		.byte	5
 959 01f8 C5       		.byte	-59
 960 01f9 0B       		.byte	11
 961 01fa C6       		.byte	-58
 962 01fb CE       		.byte	-50
 963 01fc C8       		.byte	-56
 964 01fd 0D       		.byte	13
ARM GAS  C:\Users\RYANKE~1\AppData\Local\Temp\ccXMu97e.s 			page 34


 965 01fe C9       		.byte	-55
 966 01ff FF       		.byte	-1
 967 0200 CA       		.byte	-54
 968 0201 FF       		.byte	-1
 969 0202 CB       		.byte	-53
 970 0203 FF       		.byte	-1
 971 0204 CE       		.byte	-50
 972 0205 F0       		.byte	-16
 973 0206 CF       		.byte	-49
 974 0207 44       		.byte	68
 975 0208 D0       		.byte	-48
 976 0209 0C       		.byte	12
 977 020a D8       		.byte	-40
 978 020b 04       		.byte	4
 979 020c D9       		.byte	-39
 980 020d 04       		.byte	4
 981 020e DA       		.byte	-38
 982 020f 04       		.byte	4
 983 0210 DF       		.byte	-33
 984 0211 01       		.byte	1
 985 0212 E6       		.byte	-26
 986 0213 C0       		.byte	-64
 987 0214 EA       		.byte	-22
 988 0215 40       		.byte	64
 989 0216 EB       		.byte	-21
 990 0217 02       		.byte	2
 991 0218 01       		.byte	1
 992 0219 98       		.byte	-104
 993 021a 03       		.byte	3
 994 021b 40       		.byte	64
 995 021c 09       		.byte	9
 996 021d 82       		.byte	-126
 997 021e 0A       		.byte	10
 998 021f 08       		.byte	8
 999 0220 0B       		.byte	11
 1000 0221 10       		.byte	16
 1001 0222 10       		.byte	16
 1002 0223 20       		.byte	32
 1003 0224 11       		.byte	17
 1004 0225 20       		.byte	32
 1005 0226 12       		.byte	18
 1006 0227 09       		.byte	9
 1007 0228 13       		.byte	19
 1008 0229 02       		.byte	2
 1009 022a 15       		.byte	21
 1010 022b 40       		.byte	64
 1011 022c 17       		.byte	23
 1012 022d 14       		.byte	20
 1013 022e 18       		.byte	24
 1014 022f 10       		.byte	16
 1015 0230 19       		.byte	25
 1016 0231 18       		.byte	24
 1017 0232 1D       		.byte	29
 1018 0233 80       		.byte	-128
 1019 0234 1F       		.byte	31
 1020 0235 80       		.byte	-128
 1021 0236 21       		.byte	33
ARM GAS  C:\Users\RYANKE~1\AppData\Local\Temp\ccXMu97e.s 			page 35


 1022 0237 04       		.byte	4
 1023 0238 22       		.byte	34
 1024 0239 41       		.byte	65
 1025 023a 23       		.byte	35
 1026 023b 12       		.byte	18
 1027 023c 27       		.byte	39
 1028 023d 20       		.byte	32
 1029 023e 29       		.byte	41
 1030 023f 28       		.byte	40
 1031 0240 2B       		.byte	43
 1032 0241 80       		.byte	-128
 1033 0242 2E       		.byte	46
 1034 0243 20       		.byte	32
 1035 0244 2F       		.byte	47
 1036 0245 20       		.byte	32
 1037 0246 31       		.byte	49
 1038 0247 0A       		.byte	10
 1039 0248 32       		.byte	50
 1040 0249 40       		.byte	64
 1041 024a 37       		.byte	55
 1042 024b 24       		.byte	36
 1043 024c 39       		.byte	57
 1044 024d 18       		.byte	24
 1045 024e 3A       		.byte	58
 1046 024f 11       		.byte	17
 1047 0250 3D       		.byte	61
 1048 0251 20       		.byte	32
 1049 0252 41       		.byte	65
 1050 0253 10       		.byte	16
 1051 0254 48       		.byte	72
 1052 0255 04       		.byte	4
 1053 0256 4A       		.byte	74
 1054 0257 01       		.byte	1
 1055 0258 4B       		.byte	75
 1056 0259 04       		.byte	4
 1057 025a 50       		.byte	80
 1058 025b 10       		.byte	16
 1059 025c 52       		.byte	82
 1060 025d 20       		.byte	32
 1061 025e 53       		.byte	83
 1062 025f 40       		.byte	64
 1063 0260 5C       		.byte	92
 1064 0261 04       		.byte	4
 1065 0262 6D       		.byte	109
 1066 0263 40       		.byte	64
 1067 0264 6F       		.byte	111
 1068 0265 3C       		.byte	60
 1069 0266 74       		.byte	116
 1070 0267 20       		.byte	32
 1071 0268 75       		.byte	117
 1072 0269 20       		.byte	32
 1073 026a 76       		.byte	118
 1074 026b 11       		.byte	17
 1075 026c 90       		.byte	-112
 1076 026d 04       		.byte	4
 1077 026e 92       		.byte	-110
 1078 026f 40       		.byte	64
ARM GAS  C:\Users\RYANKE~1\AppData\Local\Temp\ccXMu97e.s 			page 36


 1079 0270 94       		.byte	-108
 1080 0271 10       		.byte	16
 1081 0272 95       		.byte	-107
 1082 0273 80       		.byte	-128
 1083 0274 96       		.byte	-106
 1084 0275 02       		.byte	2
 1085 0276 97       		.byte	-105
 1086 0277 10       		.byte	16
 1087 0278 98       		.byte	-104
 1088 0279 40       		.byte	64
 1089 027a 99       		.byte	-103
 1090 027b 04       		.byte	4
 1091 027c 9A       		.byte	-102
 1092 027d 48       		.byte	72
 1093 027e 9D       		.byte	-99
 1094 027f 80       		.byte	-128
 1095 0280 9F       		.byte	-97
 1096 0281 2A       		.byte	42
 1097 0282 A0       		.byte	-96
 1098 0283 04       		.byte	4
 1099 0284 A1       		.byte	-95
 1100 0285 1A       		.byte	26
 1101 0286 A2       		.byte	-94
 1102 0287 04       		.byte	4
 1103 0288 A6       		.byte	-90
 1104 0289 21       		.byte	33
 1105 028a A7       		.byte	-89
 1106 028b 29       		.byte	41
 1107 028c AA       		.byte	-86
 1108 028d 20       		.byte	32
 1109 028e C0       		.byte	-64
 1110 028f 0F       		.byte	15
 1111 0290 C2       		.byte	-62
 1112 0291 0F       		.byte	15
 1113 0292 C4       		.byte	-60
 1114 0293 EF       		.byte	-17
 1115 0294 CA       		.byte	-54
 1116 0295 67       		.byte	103
 1117 0296 CC       		.byte	-52
 1118 0297 6B       		.byte	107
 1119 0298 CE       		.byte	-50
 1120 0299 27       		.byte	39
 1121 029a D0       		.byte	-48
 1122 029b 04       		.byte	4
 1123 029c D2       		.byte	-46
 1124 029d 0C       		.byte	12
 1125 029e D6       		.byte	-42
 1126 029f 40       		.byte	64
 1127 02a0 EA       		.byte	-22
 1128 02a1 04       		.byte	4
 1129 02a2 02       		.byte	2
 1130 02a3 08       		.byte	8
 1131 02a4 04       		.byte	4
 1132 02a5 06       		.byte	6
 1133 02a6 07       		.byte	7
 1134 02a7 05       		.byte	5
 1135 02a8 08       		.byte	8
ARM GAS  C:\Users\RYANKE~1\AppData\Local\Temp\ccXMu97e.s 			page 37


 1136 02a9 07       		.byte	7
 1137 02aa 09       		.byte	9
 1138 02ab 03       		.byte	3
 1139 02ac 0B       		.byte	11
 1140 02ad 04       		.byte	4
 1141 02ae 0C       		.byte	12
 1142 02af 07       		.byte	7
 1143 02b0 10       		.byte	16
 1144 02b1 10       		.byte	16
 1145 02b2 17       		.byte	23
 1146 02b3 10       		.byte	16
 1147 02b4 19       		.byte	25
 1148 02b5 03       		.byte	3
 1149 02b6 1A       		.byte	26
 1150 02b7 08       		.byte	8
 1151 02b8 1B       		.byte	27
 1152 02b9 0C       		.byte	12
 1153 02ba 1D       		.byte	29
 1154 02bb 0A       		.byte	10
 1155 02bc 1E       		.byte	30
 1156 02bd 01       		.byte	1
 1157 02be 1F       		.byte	31
 1158 02bf 04       		.byte	4
 1159 02c0 20       		.byte	32
 1160 02c1 06       		.byte	6
 1161 02c2 21       		.byte	33
 1162 02c3 03       		.byte	3
 1163 02c4 22       		.byte	34
 1164 02c5 01       		.byte	1
 1165 02c6 23       		.byte	35
 1166 02c7 04       		.byte	4
 1167 02c8 24       		.byte	36
 1168 02c9 02       		.byte	2
 1169 02ca 27       		.byte	39
 1170 02cb 08       		.byte	8
 1171 02cc 28       		.byte	40
 1172 02cd 01       		.byte	1
 1173 02ce 2A       		.byte	42
 1174 02cf 06       		.byte	6
 1175 02d0 2B       		.byte	43
 1176 02d1 10       		.byte	16
 1177 02d2 2C       		.byte	44
 1178 02d3 04       		.byte	4
 1179 02d4 30       		.byte	48
 1180 02d5 08       		.byte	8
 1181 02d6 32       		.byte	50
 1182 02d7 10       		.byte	16
 1183 02d8 33       		.byte	51
 1184 02d9 10       		.byte	16
 1185 02da 34       		.byte	52
 1186 02db 07       		.byte	7
 1187 02dc 35       		.byte	53
 1188 02dd 0F       		.byte	15
 1189 02de 3B       		.byte	59
 1190 02df 20       		.byte	32
 1191 02e0 3E       		.byte	62
 1192 02e1 05       		.byte	5
ARM GAS  C:\Users\RYANKE~1\AppData\Local\Temp\ccXMu97e.s 			page 38


 1193 02e2 40       		.byte	64
 1194 02e3 31       		.byte	49
 1195 02e4 41       		.byte	65
 1196 02e5 04       		.byte	4
 1197 02e6 42       		.byte	66
 1198 02e7 02       		.byte	2
 1199 02e8 44       		.byte	68
 1200 02e9 06       		.byte	6
 1201 02ea 45       		.byte	69
 1202 02eb C0       		.byte	-64
 1203 02ec 46       		.byte	70
 1204 02ed 0E       		.byte	14
 1205 02ee 48       		.byte	72
 1206 02ef 06       		.byte	6
 1207 02f0 49       		.byte	73
 1208 02f1 FF       		.byte	-1
 1209 02f2 4A       		.byte	74
 1210 02f3 FF       		.byte	-1
 1211 02f4 4B       		.byte	75
 1212 02f5 FF       		.byte	-1
 1213 02f6 4C       		.byte	76
 1214 02f7 62       		.byte	98
 1215 02f8 4D       		.byte	77
 1216 02f9 A0       		.byte	-96
 1217 02fa 4E       		.byte	78
 1218 02fb F0       		.byte	-16
 1219 02fc 4F       		.byte	79
 1220 02fd 41       		.byte	65
 1221 02fe 50       		.byte	80
 1222 02ff 0C       		.byte	12
 1223 0300 54       		.byte	84
 1224 0301 01       		.byte	1
 1225 0302 58       		.byte	88
 1226 0303 04       		.byte	4
 1227 0304 59       		.byte	89
 1228 0305 04       		.byte	4
 1229 0306 5A       		.byte	90
 1230 0307 04       		.byte	4
 1231 0308 5B       		.byte	91
 1232 0309 04       		.byte	4
 1233 030a 5F       		.byte	95
 1234 030b 01       		.byte	1
 1235 030c 66       		.byte	102
 1236 030d 40       		.byte	64
 1237 030e 67       		.byte	103
 1238 030f 02       		.byte	2
 1239 0310 69       		.byte	105
 1240 0311 10       		.byte	16
 1241 0312 6A       		.byte	106
 1242 0313 30       		.byte	48
 1243 0314 6B       		.byte	107
 1244 0315 10       		.byte	16
 1245 0316 6D       		.byte	109
 1246 0317 10       		.byte	16
 1247 0318 6E       		.byte	110
 1248 0319 10       		.byte	16
 1249 031a 6F       		.byte	111
ARM GAS  C:\Users\RYANKE~1\AppData\Local\Temp\ccXMu97e.s 			page 39


 1250 031b 12       		.byte	18
 1251 031c 85       		.byte	-123
 1252 031d 14       		.byte	20
 1253 031e 86       		.byte	-122
 1254 031f 06       		.byte	6
 1255 0320 8C       		.byte	-116
 1256 0321 06       		.byte	6
 1257 0322 8E       		.byte	-114
 1258 0323 01       		.byte	1
 1259 0324 91       		.byte	-111
 1260 0325 1C       		.byte	28
 1261 0326 93       		.byte	-109
 1262 0327 02       		.byte	2
 1263 0328 95       		.byte	-107
 1264 0329 10       		.byte	16
 1265 032a 97       		.byte	-105
 1266 032b 0C       		.byte	12
 1267 032c 9E       		.byte	-98
 1268 032d 03       		.byte	3
 1269 032e 9F       		.byte	-97
 1270 032f 03       		.byte	3
 1271 0330 A1       		.byte	-95
 1272 0331 0C       		.byte	12
 1273 0332 A2       		.byte	-94
 1274 0333 02       		.byte	2
 1275 0334 A3       		.byte	-93
 1276 0335 11       		.byte	17
 1277 0336 A5       		.byte	-91
 1278 0337 09       		.byte	9
 1279 0338 A6       		.byte	-90
 1280 0339 05       		.byte	5
 1281 033a A7       		.byte	-89
 1282 033b 10       		.byte	16
 1283 033c AA       		.byte	-86
 1284 033d 01       		.byte	1
 1285 033e AD       		.byte	-83
 1286 033f 10       		.byte	16
 1287 0340 B1       		.byte	-79
 1288 0341 1F       		.byte	31
 1289 0342 B6       		.byte	-74
 1290 0343 07       		.byte	7
 1291 0344 BA       		.byte	-70
 1292 0345 80       		.byte	-128
 1293 0346 D8       		.byte	-40
 1294 0347 04       		.byte	4
 1295 0348 D9       		.byte	-39
 1296 0349 04       		.byte	4
 1297 034a DF       		.byte	-33
 1298 034b 01       		.byte	1
 1299 034c 00       		.byte	0
 1300 034d 10       		.byte	16
 1301 034e 01       		.byte	1
 1302 034f 02       		.byte	2
 1303 0350 02       		.byte	2
 1304 0351 10       		.byte	16
 1305 0352 03       		.byte	3
 1306 0353 02       		.byte	2
ARM GAS  C:\Users\RYANKE~1\AppData\Local\Temp\ccXMu97e.s 			page 40


 1307 0354 04       		.byte	4
 1308 0355 20       		.byte	32
 1309 0356 05       		.byte	5
 1310 0357 64       		.byte	100
 1311 0358 07       		.byte	7
 1312 0359 01       		.byte	1
 1313 035a 08       		.byte	8
 1314 035b 01       		.byte	1
 1315 035c 09       		.byte	9
 1316 035d 80       		.byte	-128
 1317 035e 0A       		.byte	10
 1318 035f 04       		.byte	4
 1319 0360 0B       		.byte	11
 1320 0361 80       		.byte	-128
 1321 0362 0E       		.byte	14
 1322 0363 02       		.byte	2
 1323 0364 10       		.byte	16
 1324 0365 20       		.byte	32
 1325 0366 12       		.byte	18
 1326 0367 01       		.byte	1
 1327 0368 13       		.byte	19
 1328 0369 12       		.byte	18
 1329 036a 16       		.byte	22
 1330 036b C8       		.byte	-56
 1331 036c 17       		.byte	23
 1332 036d 08       		.byte	8
 1333 036e 19       		.byte	25
 1334 036f 08       		.byte	8
 1335 0370 1A       		.byte	26
 1336 0371 04       		.byte	4
 1337 0372 1B       		.byte	27
 1338 0373 01       		.byte	1
 1339 0374 1E       		.byte	30
 1340 0375 02       		.byte	2
 1341 0376 1F       		.byte	31
 1342 0377 80       		.byte	-128
 1343 0378 21       		.byte	33
 1344 0379 10       		.byte	16
 1345 037a 22       		.byte	34
 1346 037b 14       		.byte	20
 1347 037c 23       		.byte	35
 1348 037d 08       		.byte	8
 1349 037e 27       		.byte	39
 1350 037f 40       		.byte	64
 1351 0380 29       		.byte	41
 1352 0381 04       		.byte	4
 1353 0382 2A       		.byte	42
 1354 0383 20       		.byte	32
 1355 0384 2B       		.byte	43
 1356 0385 A0       		.byte	-96
 1357 0386 2E       		.byte	46
 1358 0387 80       		.byte	-128
 1359 0388 2F       		.byte	47
 1360 0389 A0       		.byte	-96
 1361 038a 30       		.byte	48
 1362 038b 40       		.byte	64
 1363 038c 31       		.byte	49
ARM GAS  C:\Users\RYANKE~1\AppData\Local\Temp\ccXMu97e.s 			page 41


 1364 038d 40       		.byte	64
 1365 038e 32       		.byte	50
 1366 038f 18       		.byte	24
 1367 0390 37       		.byte	55
 1368 0391 49       		.byte	73
 1369 0392 38       		.byte	56
 1370 0393 20       		.byte	32
 1371 0394 3A       		.byte	58
 1372 0395 08       		.byte	8
 1373 0396 3F       		.byte	63
 1374 0397 04       		.byte	4
 1375 0398 41       		.byte	65
 1376 0399 86       		.byte	-122
 1377 039a 42       		.byte	66
 1378 039b 04       		.byte	4
 1379 039c 43       		.byte	67
 1380 039d 02       		.byte	2
 1381 039e 49       		.byte	73
 1382 039f 02       		.byte	2
 1383 03a0 4A       		.byte	74
 1384 03a1 04       		.byte	4
 1385 03a2 51       		.byte	81
 1386 03a3 40       		.byte	64
 1387 03a4 58       		.byte	88
 1388 03a5 01       		.byte	1
 1389 03a6 59       		.byte	89
 1390 03a7 28       		.byte	40
 1391 03a8 5A       		.byte	90
 1392 03a9 40       		.byte	64
 1393 03aa 90       		.byte	-112
 1394 03ab 30       		.byte	48
 1395 03ac 91       		.byte	-111
 1396 03ad 08       		.byte	8
 1397 03ae 92       		.byte	-110
 1398 03af 40       		.byte	64
 1399 03b0 93       		.byte	-109
 1400 03b1 94       		.byte	-108
 1401 03b2 95       		.byte	-107
 1402 03b3 A0       		.byte	-96
 1403 03b4 96       		.byte	-106
 1404 03b5 08       		.byte	8
 1405 03b6 98       		.byte	-104
 1406 03b7 40       		.byte	64
 1407 03b8 99       		.byte	-103
 1408 03b9 04       		.byte	4
 1409 03ba 9A       		.byte	-102
 1410 03bb 79       		.byte	121
 1411 03bc 9B       		.byte	-101
 1412 03bd 02       		.byte	2
 1413 03be 9F       		.byte	-97
 1414 03bf 48       		.byte	72
 1415 03c0 A0       		.byte	-96
 1416 03c1 20       		.byte	32
 1417 03c2 A1       		.byte	-95
 1418 03c3 82       		.byte	-126
 1419 03c4 A2       		.byte	-94
 1420 03c5 0C       		.byte	12
ARM GAS  C:\Users\RYANKE~1\AppData\Local\Temp\ccXMu97e.s 			page 42


 1421 03c6 A6       		.byte	-90
 1422 03c7 01       		.byte	1
 1423 03c8 A7       		.byte	-89
 1424 03c9 01       		.byte	1
 1425 03ca A9       		.byte	-87
 1426 03cb 10       		.byte	16
 1427 03cc B5       		.byte	-75
 1428 03cd 80       		.byte	-128
 1429 03ce B6       		.byte	-74
 1430 03cf 20       		.byte	32
 1431 03d0 C0       		.byte	-64
 1432 03d1 AF       		.byte	-81
 1433 03d2 C2       		.byte	-62
 1434 03d3 8B       		.byte	-117
 1435 03d4 C4       		.byte	-60
 1436 03d5 7F       		.byte	127
 1437 03d6 CA       		.byte	-54
 1438 03d7 D7       		.byte	-41
 1439 03d8 CC       		.byte	-52
 1440 03d9 DE       		.byte	-34
 1441 03da CE       		.byte	-50
 1442 03db 46       		.byte	70
 1443 03dc D0       		.byte	-48
 1444 03dd 0F       		.byte	15
 1445 03de D2       		.byte	-46
 1446 03df 04       		.byte	4
 1447 03e0 D6       		.byte	-42
 1448 03e1 0F       		.byte	15
 1449 03e2 EC       		.byte	-20
 1450 03e3 04       		.byte	4
 1451 03e4 32       		.byte	50
 1452 03e5 20       		.byte	32
 1453 03e6 CC       		.byte	-52
 1454 03e7 10       		.byte	16
 1455 03e8 A6       		.byte	-90
 1456 03e9 20       		.byte	32
 1457 03ea A6       		.byte	-90
 1458 03eb 20       		.byte	32
 1459 03ec 86       		.byte	-122
 1460 03ed 20       		.byte	32
 1461 03ee A6       		.byte	-90
 1462 03ef 20       		.byte	32
 1463 03f0 E6       		.byte	-26
 1464 03f1 40       		.byte	64
 1465 03f2 09       		.byte	9
 1466 03f3 20       		.byte	32
 1467 03f4 0C       		.byte	12
 1468 03f5 80       		.byte	-128
 1469 03f6 63       		.byte	99
 1470 03f7 08       		.byte	8
 1471 03f8 A4       		.byte	-92
 1472 03f9 80       		.byte	-128
 1473 03fa A8       		.byte	-88
 1474 03fb 80       		.byte	-128
 1475 03fc C2       		.byte	-62
 1476 03fd 03       		.byte	3
 1477 03fe D8       		.byte	-40
ARM GAS  C:\Users\RYANKE~1\AppData\Local\Temp\ccXMu97e.s 			page 43


 1478 03ff 02       		.byte	2
 1479 0400 AB       		.byte	-85
 1480 0401 04       		.byte	4
 1481 0402 B5       		.byte	-75
 1482 0403 20       		.byte	32
 1483 0404 EE       		.byte	-18
 1484 0405 02       		.byte	2
 1485 0406 00       		.byte	0
 1486 0407 01       		.byte	1
 1487 0408 0C       		.byte	12
 1488 0409 01       		.byte	1
 1489 040a 10       		.byte	16
 1490 040b 01       		.byte	1
 1491 040c 1C       		.byte	28
 1492 040d 01       		.byte	1
 1493 040e 00       		.byte	0
 1494 040f 03       		.byte	3
 1495              		.type	BS_IOPINS0_8_VAL.4876, %object
 1496              		.size	BS_IOPINS0_8_VAL.4876, 8
 1497              	BS_IOPINS0_8_VAL.4876:
 1498 0410 00       		.byte	0
 1499 0411 10       		.byte	16
 1500 0412 10       		.byte	16
 1501 0413 00       		.byte	0
 1502 0414 00       		.byte	0
 1503 0415 00       		.byte	0
 1504 0416 00       		.byte	0
 1505 0417 00       		.byte	0
 1506              		.type	BS_IOPINS0_1_VAL.4877, %object
 1507              		.size	BS_IOPINS0_1_VAL.4877, 10
 1508              	BS_IOPINS0_1_VAL.4877:
 1509 0418 20       		.byte	32
 1510 0419 00       		.byte	0
 1511 041a C0       		.byte	-64
 1512 041b 20       		.byte	32
 1513 041c 20       		.byte	32
 1514 041d 00       		.byte	0
 1515 041e 20       		.byte	32
 1516 041f 00       		.byte	0
 1517 0420 00       		.byte	0
 1518 0421 00       		.byte	0
 1519 0422 0000     		.text
 1520              	.Letext0:
 1521              		.file 2 "c:\\program files (x86)\\cypress\\psoc creator\\4.0\\psoc creator\\import\\gnu\\arm\\4.9.
 1522              		.file 3 "Generated_Source\\PSoC5\\cytypes.h"
 1523              		.file 4 "Generated_Source\\PSoC5\\CyLib.h"