ARM GAS  C:\Users\RYANKE~1\AppData\Local\Temp\ccn15oBT.s 			page 1


   1              		.syntax unified
   2              		.cpu cortex-m3
   3              		.fpu softvfp
   4              		.eabi_attribute 20, 1
   5              		.eabi_attribute 21, 1
   6              		.eabi_attribute 23, 3
   7              		.eabi_attribute 24, 1
   8              		.eabi_attribute 25, 1
   9              		.eabi_attribute 26, 1
  10              		.eabi_attribute 30, 1
  11              		.eabi_attribute 34, 1
  12              		.eabi_attribute 18, 4
  13              		.thumb
  14              		.file	"esp07.c"
  15              		.text
  16              	.Ltext0:
  17              		.cfi_sections	.debug_frame
  18              		.section	.text.ESP07_Boot,"ax",%progbits
  19              		.align	2
  20              		.global	ESP07_Boot
  21              		.thumb
  22              		.thumb_func
  23              		.type	ESP07_Boot, %function
  24              	ESP07_Boot:
  25              	.LFB63:
  26              		.file 1 "esp07.c"
   1:esp07.c       **** /////////////////////////////////////////////////////////////////////////////////
   2:esp07.c       **** /////////////////////////////////////////////////////////////////////////////////
   3:esp07.c       **** /// Copyright Chad Hensley 2017                                               ///
   4:esp07.c       **** /// All Rights Reserved                                                       ///
   5:esp07.c       **** /// UNPUBLISHED, LICENSED SOFTWARE.                                           ///
   6:esp07.c       **** ///                                                                           ///
   7:esp07.c       **** /// CONFIDENTIAL AND PROPRIETARY INFORMATION                                  ///
   8:esp07.c       **** /// WHICH IS THE PROPERTY OF THE COPYRIGHT HOLDER                             ///
   9:esp07.c       **** ///                                                                           ///
  10:esp07.c       **** /// File:       esp07.c                                                       ///
  11:esp07.c       **** /// Function:   4DShoot Controller ESP07 Wireless Firmware                    ///
  12:esp07.c       **** /// Date:       28 January 2017                                               ///
  13:esp07.c       **** /// Target:     CY8C5888LTI-LP097                                             ///
  14:esp07.c       **** /// Software:   PSoC Creator 4.0 Update 1                                     ///
  15:esp07.c       **** /// Author:     Matt Cauvel, Ryan Kelley                                      ///
  16:esp07.c       **** /// Revisions:                                                                ///
  17:esp07.c       **** ///             0.A - 28/01/2017 - File Created                               ///
  18:esp07.c       **** ///                                                                           ///
  19:esp07.c       **** /////////////////////////////////////////////////////////////////////////////////
  20:esp07.c       **** /////////////////////////////////////////////////////////////////////////////////
  21:esp07.c       **** #include "esp07.h"                                                            ///
  22:esp07.c       **** /////////////////////////////////////////////////////////////////////////////////
  23:esp07.c       **** 
  24:esp07.c       **** void ESP07_Boot(void)
  25:esp07.c       **** {
  27              		.loc 1 25 0
  28              		.cfi_startproc
  29              		@ args = 0, pretend = 0, frame = 0
  30              		@ frame_needed = 0, uses_anonymous_args = 0
  31 0000 08B5     		push	{r3, lr}
  32              		.cfi_def_cfa_offset 8
ARM GAS  C:\Users\RYANKE~1\AppData\Local\Temp\ccn15oBT.s 			page 2


  33              		.cfi_offset 3, -8
  34              		.cfi_offset 14, -4
  26:esp07.c       ****     ESP07_UART_PutString("AT+RST\r\n");
  35              		.loc 1 26 0
  36 0002 1648     		ldr	r0, .L3
  37 0004 FFF7FEFF 		bl	ESP07_UART_PutString
  38              	.LVL0:
  27:esp07.c       ****     CyDelay(500);
  39              		.loc 1 27 0
  40 0008 4FF4FA70 		mov	r0, #500
  41 000c FFF7FEFF 		bl	CyDelay
  42              	.LVL1:
  28:esp07.c       **** 
  29:esp07.c       ****     ESP07_UART_PutString("AT\r\n");
  43              		.loc 1 29 0
  44 0010 1348     		ldr	r0, .L3+4
  45 0012 FFF7FEFF 		bl	ESP07_UART_PutString
  46              	.LVL2:
  30:esp07.c       ****     CyDelay(50);
  47              		.loc 1 30 0
  48 0016 3220     		movs	r0, #50
  49 0018 FFF7FEFF 		bl	CyDelay
  50              	.LVL3:
  31:esp07.c       ****     
  32:esp07.c       ****     ESP07_UART_PutString("ATE0\r\n");
  51              		.loc 1 32 0
  52 001c 1148     		ldr	r0, .L3+8
  53 001e FFF7FEFF 		bl	ESP07_UART_PutString
  54              	.LVL4:
  33:esp07.c       ****     CyDelay(50);
  55              		.loc 1 33 0
  56 0022 3220     		movs	r0, #50
  57 0024 FFF7FEFF 		bl	CyDelay
  58              	.LVL5:
  34:esp07.c       ****     
  35:esp07.c       ****     ESP07_UART_PutString("AT+CIPMODE=0\r\n");
  59              		.loc 1 35 0
  60 0028 0F48     		ldr	r0, .L3+12
  61 002a FFF7FEFF 		bl	ESP07_UART_PutString
  62              	.LVL6:
  36:esp07.c       ****     CyDelay(50);
  63              		.loc 1 36 0
  64 002e 3220     		movs	r0, #50
  65 0030 FFF7FEFF 		bl	CyDelay
  66              	.LVL7:
  37:esp07.c       ****     
  38:esp07.c       ****     ESP07_UART_PutString("AT+CIPMUX=1\r\n");
  67              		.loc 1 38 0
  68 0034 0D48     		ldr	r0, .L3+16
  69 0036 FFF7FEFF 		bl	ESP07_UART_PutString
  70              	.LVL8:
  39:esp07.c       ****     CyDelay(50);
  71              		.loc 1 39 0
  72 003a 3220     		movs	r0, #50
  73 003c FFF7FEFF 		bl	CyDelay
  74              	.LVL9:
  40:esp07.c       ****     
ARM GAS  C:\Users\RYANKE~1\AppData\Local\Temp\ccn15oBT.s 			page 3


  41:esp07.c       ****     ESP07_UART_PutString("AT+CWSAP=\"4DShoot Prototype\",\"hhwwguak\",1,3,4,0\r\n");
  75              		.loc 1 41 0
  76 0040 0B48     		ldr	r0, .L3+20
  77 0042 FFF7FEFF 		bl	ESP07_UART_PutString
  78              	.LVL10:
  42:esp07.c       ****     CyDelay(50);
  79              		.loc 1 42 0
  80 0046 3220     		movs	r0, #50
  81 0048 FFF7FEFF 		bl	CyDelay
  82              	.LVL11:
  43:esp07.c       ****     
  44:esp07.c       ****     ESP07_UART_PutString("AT+CIPSERVER=1,80\r\n");
  83              		.loc 1 44 0
  84 004c 0948     		ldr	r0, .L3+24
  85 004e FFF7FEFF 		bl	ESP07_UART_PutString
  86              	.LVL12:
  45:esp07.c       ****     CyDelay(50);
  87              		.loc 1 45 0
  88 0052 3220     		movs	r0, #50
  89 0054 FFF7FEFF 		bl	CyDelay
  90              	.LVL13:
  91 0058 08BD     		pop	{r3, pc}
  92              	.L4:
  93 005a 00BF     		.align	2
  94              	.L3:
  95 005c 00000000 		.word	.LC0
  96 0060 0C000000 		.word	.LC1
  97 0064 14000000 		.word	.LC2
  98 0068 1C000000 		.word	.LC3
  99 006c 2C000000 		.word	.LC4
 100 0070 3C000000 		.word	.LC5
 101 0074 70000000 		.word	.LC6
 102              		.cfi_endproc
 103              	.LFE63:
 104              		.size	ESP07_Boot, .-ESP07_Boot
 105              		.section	.text.ESP07_Parse,"ax",%progbits
 106              		.align	2
 107              		.global	ESP07_Parse
 108              		.thumb
 109              		.thumb_func
 110              		.type	ESP07_Parse, %function
 111              	ESP07_Parse:
 112              	.LFB64:
  46:esp07.c       ****     
  47:esp07.c       ****     return;
  48:esp07.c       **** }
  49:esp07.c       **** 
  50:esp07.c       **** struct ESP07_Datagram ESP07_Parse(const char data[])
  51:esp07.c       **** {
 113              		.loc 1 51 0
 114              		.cfi_startproc
 115              		@ args = 0, pretend = 0, frame = 136
 116              		@ frame_needed = 0, uses_anonymous_args = 0
 117              	.LVL14:
 118 0000 70B5     		push	{r4, r5, r6, lr}
 119              		.cfi_def_cfa_offset 16
 120              		.cfi_offset 4, -16
ARM GAS  C:\Users\RYANKE~1\AppData\Local\Temp\ccn15oBT.s 			page 4


 121              		.cfi_offset 5, -12
 122              		.cfi_offset 6, -8
 123              		.cfi_offset 14, -4
 124 0002 A2B0     		sub	sp, sp, #136
 125              		.cfi_def_cfa_offset 152
 126 0004 0646     		mov	r6, r0
 127 0006 0C46     		mov	r4, r1
  52:esp07.c       ****     struct ESP07_Datagram working;
  53:esp07.c       ****     
  54:esp07.c       ****     // Copy raw string to datagram object
  55:esp07.c       ****     strcpy(working.raw, data);
 128              		.loc 1 55 0
 129 0008 11A8     		add	r0, sp, #68
 130              	.LVL15:
 131 000a FFF7FEFF 		bl	strcpy
 132              	.LVL16:
  56:esp07.c       ****     working.length_raw = strlen(data);
 133              		.loc 1 56 0
 134 000e 2046     		mov	r0, r4
 135 0010 FFF7FEFF 		bl	strlen
 136              	.LVL17:
 137 0014 8DF88600 		strb	r0, [sp, #134]
  57:esp07.c       ****     
  58:esp07.c       ****     // Check for +IPD header substring
  59:esp07.c       ****     if(strstr(data, "+IPD,") != NULL)
 138              		.loc 1 59 0
 139 0018 2046     		mov	r0, r4
 140 001a 8F49     		ldr	r1, .L36
 141 001c FFF7FEFF 		bl	strstr
 142              	.LVL18:
 143 0020 A0B1     		cbz	r0, .L6
  60:esp07.c       ****     {   
  61:esp07.c       ****         // Get payload substring, length after ':'
  62:esp07.c       ****         working.length_payload = (data + strlen(data)) - strchr(data, ':') - 1;
 144              		.loc 1 62 0
 145 0022 2046     		mov	r0, r4
 146 0024 FFF7FEFF 		bl	strlen
 147              	.LVL19:
 148 0028 2518     		adds	r5, r4, r0
 149 002a 2046     		mov	r0, r4
 150 002c 3A21     		movs	r1, #58
 151 002e FFF7FEFF 		bl	strchr
 152              	.LVL20:
 153 0032 281A     		subs	r0, r5, r0
 154 0034 0138     		subs	r0, r0, #1
 155 0036 8DF88500 		strb	r0, [sp, #133]
  63:esp07.c       ****         strcpy(working.payload, strchr(data, ':') + 1);
 156              		.loc 1 63 0
 157 003a 2046     		mov	r0, r4
 158 003c 3A21     		movs	r1, #58
 159 003e FFF7FEFF 		bl	strchr
 160              	.LVL21:
 161 0042 411C     		adds	r1, r0, #1
 162 0044 01A8     		add	r0, sp, #4
 163 0046 FFF7FEFF 		bl	strcpy
 164              	.LVL22:
 165 004a 08E0     		b	.L7
ARM GAS  C:\Users\RYANKE~1\AppData\Local\Temp\ccn15oBT.s 			page 5


 166              	.L6:
  64:esp07.c       ****     }
  65:esp07.c       ****     else
  66:esp07.c       ****     {
  67:esp07.c       ****         strcpy(working.payload, data);
 167              		.loc 1 67 0
 168 004c 01A8     		add	r0, sp, #4
 169 004e 2146     		mov	r1, r4
 170 0050 FFF7FEFF 		bl	strcpy
 171              	.LVL23:
  68:esp07.c       ****         working.length_payload = strlen(data);
 172              		.loc 1 68 0
 173 0054 2046     		mov	r0, r4
 174 0056 FFF7FEFF 		bl	strlen
 175              	.LVL24:
 176 005a 8DF88500 		strb	r0, [sp, #133]
 177              	.L7:
  69:esp07.c       ****     }
  70:esp07.c       ****     
  71:esp07.c       ****     // Get command identifier
  72:esp07.c       ****     if      (!strcmp(working.payload, ""))
 178              		.loc 1 72 0
 179 005e 9DF80430 		ldrb	r3, [sp, #4]	@ zero_extendqisi2
 180 0062 1BB9     		cbnz	r3, .L8
  73:esp07.c       ****         working.id = 1;
 181              		.loc 1 73 0
 182 0064 0123     		movs	r3, #1
 183 0066 8DF88430 		strb	r3, [sp, #132]
 184 006a EDE0     		b	.L9
 185              	.L8:
  74:esp07.c       ****     else if (!strcmp(working.payload, "LED ON"))
 186              		.loc 1 74 0
 187 006c 01A8     		add	r0, sp, #4
 188 006e 7B49     		ldr	r1, .L36+4
 189 0070 FFF7FEFF 		bl	strcmp
 190              	.LVL25:
 191 0074 18B9     		cbnz	r0, .L10
  75:esp07.c       ****         working.id = 2;
 192              		.loc 1 75 0
 193 0076 0223     		movs	r3, #2
 194 0078 8DF88430 		strb	r3, [sp, #132]
 195 007c E4E0     		b	.L9
 196              	.L10:
  76:esp07.c       ****     else if (!strcmp(working.payload, "LED OFF"))
 197              		.loc 1 76 0
 198 007e 01A8     		add	r0, sp, #4
 199 0080 7749     		ldr	r1, .L36+8
 200 0082 FFF7FEFF 		bl	strcmp
 201              	.LVL26:
 202 0086 18B9     		cbnz	r0, .L11
  77:esp07.c       ****         working.id = 3;
 203              		.loc 1 77 0
 204 0088 0323     		movs	r3, #3
 205 008a 8DF88430 		strb	r3, [sp, #132]
 206 008e DBE0     		b	.L9
 207              	.L11:
  78:esp07.c       ****     else if (!strcmp(working.payload, "OK"))
ARM GAS  C:\Users\RYANKE~1\AppData\Local\Temp\ccn15oBT.s 			page 6


 208              		.loc 1 78 0
 209 0090 01A8     		add	r0, sp, #4
 210 0092 7449     		ldr	r1, .L36+12
 211 0094 FFF7FEFF 		bl	strcmp
 212              	.LVL27:
 213 0098 18B9     		cbnz	r0, .L12
  79:esp07.c       ****         working.id = 4;
 214              		.loc 1 79 0
 215 009a 0423     		movs	r3, #4
 216 009c 8DF88430 		strb	r3, [sp, #132]
 217 00a0 D2E0     		b	.L9
 218              	.L12:
  80:esp07.c       ****     else if (!strcmp(working.payload, "ready"))
 219              		.loc 1 80 0
 220 00a2 01A8     		add	r0, sp, #4
 221 00a4 7049     		ldr	r1, .L36+16
 222 00a6 FFF7FEFF 		bl	strcmp
 223              	.LVL28:
 224 00aa 18B9     		cbnz	r0, .L13
  81:esp07.c       ****         working.id = 5;
 225              		.loc 1 81 0
 226 00ac 0523     		movs	r3, #5
 227 00ae 8DF88430 		strb	r3, [sp, #132]
 228 00b2 C9E0     		b	.L9
 229              	.L13:
  82:esp07.c       ****     else if (!strcmp(working.payload, "> "))
 230              		.loc 1 82 0
 231 00b4 01A8     		add	r0, sp, #4
 232 00b6 6D49     		ldr	r1, .L36+20
 233 00b8 FFF7FEFF 		bl	strcmp
 234              	.LVL29:
 235 00bc 18B9     		cbnz	r0, .L14
  83:esp07.c       ****         working.id = 6;
 236              		.loc 1 83 0
 237 00be 0623     		movs	r3, #6
 238 00c0 8DF88430 		strb	r3, [sp, #132]
 239 00c4 C0E0     		b	.L9
 240              	.L14:
  84:esp07.c       ****     else if (!strncmp(working.payload, "Recv", 4))
 241              		.loc 1 84 0
 242 00c6 01A8     		add	r0, sp, #4
 243 00c8 6949     		ldr	r1, .L36+24
 244 00ca 0422     		movs	r2, #4
 245 00cc FFF7FEFF 		bl	strncmp
 246              	.LVL30:
 247 00d0 18B9     		cbnz	r0, .L15
  85:esp07.c       ****         working.id = 7;
 248              		.loc 1 85 0
 249 00d2 0723     		movs	r3, #7
 250 00d4 8DF88430 		strb	r3, [sp, #132]
 251 00d8 B6E0     		b	.L9
 252              	.L15:
  86:esp07.c       ****     else if (!strcmp(working.payload, "SEND OK"))
 253              		.loc 1 86 0
 254 00da 01A8     		add	r0, sp, #4
 255 00dc 6549     		ldr	r1, .L36+28
 256 00de FFF7FEFF 		bl	strcmp
ARM GAS  C:\Users\RYANKE~1\AppData\Local\Temp\ccn15oBT.s 			page 7


 257              	.LVL31:
 258 00e2 18B9     		cbnz	r0, .L16
  87:esp07.c       ****         working.id = 8;
 259              		.loc 1 87 0
 260 00e4 0823     		movs	r3, #8
 261 00e6 8DF88430 		strb	r3, [sp, #132]
 262 00ea ADE0     		b	.L9
 263              	.L16:
  88:esp07.c       ****     else if (!strcmp(working.payload, "ERROR"))
 264              		.loc 1 88 0
 265 00ec 01A8     		add	r0, sp, #4
 266 00ee 6249     		ldr	r1, .L36+32
 267 00f0 FFF7FEFF 		bl	strcmp
 268              	.LVL32:
 269 00f4 18B9     		cbnz	r0, .L17
  89:esp07.c       ****         working.id = 9;
 270              		.loc 1 89 0
 271 00f6 0923     		movs	r3, #9
 272 00f8 8DF88430 		strb	r3, [sp, #132]
 273 00fc A4E0     		b	.L9
 274              	.L17:
  90:esp07.c       ****     else if (!strcmp(working.payload, "0,CONNECT"))
 275              		.loc 1 90 0
 276 00fe 01A8     		add	r0, sp, #4
 277 0100 5E49     		ldr	r1, .L36+36
 278 0102 FFF7FEFF 		bl	strcmp
 279              	.LVL33:
 280 0106 18B9     		cbnz	r0, .L18
  91:esp07.c       ****         working.id = 10;
 281              		.loc 1 91 0
 282 0108 0A23     		movs	r3, #10
 283 010a 8DF88430 		strb	r3, [sp, #132]
 284 010e 9BE0     		b	.L9
 285              	.L18:
  92:esp07.c       ****     else if (!strcmp(working.payload, "0,CLOSED"))
 286              		.loc 1 92 0
 287 0110 01A8     		add	r0, sp, #4
 288 0112 5B49     		ldr	r1, .L36+40
 289 0114 FFF7FEFF 		bl	strcmp
 290              	.LVL34:
 291 0118 18B9     		cbnz	r0, .L19
  93:esp07.c       ****         working.id = 11;
 292              		.loc 1 93 0
 293 011a 0B23     		movs	r3, #11
 294 011c 8DF88430 		strb	r3, [sp, #132]
 295 0120 92E0     		b	.L9
 296              	.L19:
  94:esp07.c       ****     else if (!strcmp(working.payload, "DUMP"))
 297              		.loc 1 94 0
 298 0122 01A8     		add	r0, sp, #4
 299 0124 5749     		ldr	r1, .L36+44
 300 0126 FFF7FEFF 		bl	strcmp
 301              	.LVL35:
 302 012a 18B9     		cbnz	r0, .L20
  95:esp07.c       ****         working.id = 12;
 303              		.loc 1 95 0
 304 012c 0C23     		movs	r3, #12
ARM GAS  C:\Users\RYANKE~1\AppData\Local\Temp\ccn15oBT.s 			page 8


 305 012e 8DF88430 		strb	r3, [sp, #132]
 306 0132 89E0     		b	.L9
 307              	.L20:
  96:esp07.c       ****     else if (!strcmp(working.payload, "0,CONNECT FAIL"))
 308              		.loc 1 96 0
 309 0134 01A8     		add	r0, sp, #4
 310 0136 5449     		ldr	r1, .L36+48
 311 0138 FFF7FEFF 		bl	strcmp
 312              	.LVL36:
 313 013c 18B9     		cbnz	r0, .L21
  97:esp07.c       ****         working.id = 13;
 314              		.loc 1 97 0
 315 013e 0D23     		movs	r3, #13
 316 0140 8DF88430 		strb	r3, [sp, #132]
 317 0144 80E0     		b	.L9
 318              	.L21:
  98:esp07.c       ****     else if (!strcmp(working.payload, "RESET"))
 319              		.loc 1 98 0
 320 0146 01A8     		add	r0, sp, #4
 321 0148 5049     		ldr	r1, .L36+52
 322 014a FFF7FEFF 		bl	strcmp
 323              	.LVL37:
 324 014e 18B9     		cbnz	r0, .L22
  99:esp07.c       ****         working.id = 14;
 325              		.loc 1 99 0
 326 0150 0E23     		movs	r3, #14
 327 0152 8DF88430 		strb	r3, [sp, #132]
 328 0156 77E0     		b	.L9
 329              	.L22:
 100:esp07.c       ****     else if (!strncmp(working.payload, "LFT_FWD", 7))
 330              		.loc 1 100 0
 331 0158 01A8     		add	r0, sp, #4
 332 015a 4D49     		ldr	r1, .L36+56
 333 015c 0722     		movs	r2, #7
 334 015e FFF7FEFF 		bl	strncmp
 335              	.LVL38:
 336 0162 18B9     		cbnz	r0, .L23
 101:esp07.c       ****         working.id = 16;
 337              		.loc 1 101 0
 338 0164 1023     		movs	r3, #16
 339 0166 8DF88430 		strb	r3, [sp, #132]
 340 016a 6DE0     		b	.L9
 341              	.L23:
 102:esp07.c       ****     else if (!strncmp(working.payload, "LFT_BCK", 7))
 342              		.loc 1 102 0
 343 016c 01A8     		add	r0, sp, #4
 344 016e 4949     		ldr	r1, .L36+60
 345 0170 0722     		movs	r2, #7
 346 0172 FFF7FEFF 		bl	strncmp
 347              	.LVL39:
 348 0176 18B9     		cbnz	r0, .L24
 103:esp07.c       ****         working.id = 17;
 349              		.loc 1 103 0
 350 0178 1123     		movs	r3, #17
 351 017a 8DF88430 		strb	r3, [sp, #132]
 352 017e 63E0     		b	.L9
 353              	.L24:
ARM GAS  C:\Users\RYANKE~1\AppData\Local\Temp\ccn15oBT.s 			page 9


 104:esp07.c       ****     else if (!strncmp(working.payload, "RGT_FWD", 7))
 354              		.loc 1 104 0
 355 0180 01A8     		add	r0, sp, #4
 356 0182 4549     		ldr	r1, .L36+64
 357 0184 0722     		movs	r2, #7
 358 0186 FFF7FEFF 		bl	strncmp
 359              	.LVL40:
 360 018a 18B9     		cbnz	r0, .L25
 105:esp07.c       ****         working.id = 18;
 361              		.loc 1 105 0
 362 018c 1223     		movs	r3, #18
 363 018e 8DF88430 		strb	r3, [sp, #132]
 364 0192 59E0     		b	.L9
 365              	.L25:
 106:esp07.c       ****     else if (!strncmp(working.payload, "RGT_BCK", 7))
 366              		.loc 1 106 0
 367 0194 01A8     		add	r0, sp, #4
 368 0196 4149     		ldr	r1, .L36+68
 369 0198 0722     		movs	r2, #7
 370 019a FFF7FEFF 		bl	strncmp
 371              	.LVL41:
 372 019e 18B9     		cbnz	r0, .L26
 107:esp07.c       ****         working.id = 19;
 373              		.loc 1 107 0
 374 01a0 1323     		movs	r3, #19
 375 01a2 8DF88430 		strb	r3, [sp, #132]
 376 01a6 4FE0     		b	.L9
 377              	.L26:
 108:esp07.c       ****     else if (!strncmp(working.payload, "ALL_FWD", 7))
 378              		.loc 1 108 0
 379 01a8 01A8     		add	r0, sp, #4
 380 01aa 3D49     		ldr	r1, .L36+72
 381 01ac 0722     		movs	r2, #7
 382 01ae FFF7FEFF 		bl	strncmp
 383              	.LVL42:
 384 01b2 18B9     		cbnz	r0, .L27
 109:esp07.c       ****         working.id = 20;
 385              		.loc 1 109 0
 386 01b4 1423     		movs	r3, #20
 387 01b6 8DF88430 		strb	r3, [sp, #132]
 388 01ba 45E0     		b	.L9
 389              	.L27:
 110:esp07.c       ****     else if (!strncmp(working.payload, "ALL_BCK", 7))
 390              		.loc 1 110 0
 391 01bc 01A8     		add	r0, sp, #4
 392 01be 3949     		ldr	r1, .L36+76
 393 01c0 0722     		movs	r2, #7
 394 01c2 FFF7FEFF 		bl	strncmp
 395              	.LVL43:
 396 01c6 18B9     		cbnz	r0, .L28
 111:esp07.c       ****         working.id = 21;
 397              		.loc 1 111 0
 398 01c8 1523     		movs	r3, #21
 399 01ca 8DF88430 		strb	r3, [sp, #132]
 400 01ce 3BE0     		b	.L9
 401              	.L28:
 112:esp07.c       ****     else if (!strncmp(working.payload, "ROTATE", 6))
ARM GAS  C:\Users\RYANKE~1\AppData\Local\Temp\ccn15oBT.s 			page 10


 402              		.loc 1 112 0
 403 01d0 01A8     		add	r0, sp, #4
 404 01d2 3549     		ldr	r1, .L36+80
 405 01d4 0622     		movs	r2, #6
 406 01d6 FFF7FEFF 		bl	strncmp
 407              	.LVL44:
 408 01da 18B9     		cbnz	r0, .L29
 113:esp07.c       ****         working.id = 22;
 409              		.loc 1 113 0
 410 01dc 1623     		movs	r3, #22
 411 01de 8DF88430 		strb	r3, [sp, #132]
 412 01e2 31E0     		b	.L9
 413              	.L29:
 114:esp07.c       ****     else if (!strncmp(working.payload, "MOVE", 4)) //Uses Command - Speed - Distance
 414              		.loc 1 114 0
 415 01e4 01A8     		add	r0, sp, #4
 416 01e6 3149     		ldr	r1, .L36+84
 417 01e8 0422     		movs	r2, #4
 418 01ea FFF7FEFF 		bl	strncmp
 419              	.LVL45:
 420 01ee 18B9     		cbnz	r0, .L30
 115:esp07.c       ****         working.id = 23;
 421              		.loc 1 115 0
 422 01f0 1723     		movs	r3, #23
 423 01f2 8DF88430 		strb	r3, [sp, #132]
 424 01f6 27E0     		b	.L9
 425              	.L30:
 116:esp07.c       ****     else if (!strcmp(working.payload, "COORD"))
 426              		.loc 1 116 0
 427 01f8 01A8     		add	r0, sp, #4
 428 01fa 2D49     		ldr	r1, .L36+88
 429 01fc FFF7FEFF 		bl	strcmp
 430              	.LVL46:
 431 0200 18B9     		cbnz	r0, .L31
 117:esp07.c       ****         working.id = 24;
 432              		.loc 1 117 0
 433 0202 1823     		movs	r3, #24
 434 0204 8DF88430 		strb	r3, [sp, #132]
 435 0208 1EE0     		b	.L9
 436              	.L31:
 118:esp07.c       ****     else if (!strcmp(working.payload, "HEADING"))
 437              		.loc 1 118 0
 438 020a 01A8     		add	r0, sp, #4
 439 020c 2949     		ldr	r1, .L36+92
 440 020e FFF7FEFF 		bl	strcmp
 441              	.LVL47:
 442 0212 18B9     		cbnz	r0, .L32
 119:esp07.c       ****         working.id = 25;
 443              		.loc 1 119 0
 444 0214 1923     		movs	r3, #25
 445 0216 8DF88430 		strb	r3, [sp, #132]
 446 021a 15E0     		b	.L9
 447              	.L32:
 120:esp07.c       ****     else if (!strncmp(working.payload, "NPOLYG", 6))
 448              		.loc 1 120 0
 449 021c 01A8     		add	r0, sp, #4
 450 021e 2649     		ldr	r1, .L36+96
ARM GAS  C:\Users\RYANKE~1\AppData\Local\Temp\ccn15oBT.s 			page 11


 451 0220 0622     		movs	r2, #6
 452 0222 FFF7FEFF 		bl	strncmp
 453              	.LVL48:
 454 0226 18B9     		cbnz	r0, .L33
 121:esp07.c       ****         working.id = 26;
 455              		.loc 1 121 0
 456 0228 1A23     		movs	r3, #26
 457 022a 8DF88430 		strb	r3, [sp, #132]
 458 022e 0BE0     		b	.L9
 459              	.L33:
 122:esp07.c       ****     else if (!strcmp(working.payload, "STOP"))
 460              		.loc 1 122 0
 461 0230 01A8     		add	r0, sp, #4
 462 0232 2249     		ldr	r1, .L36+100
 463 0234 FFF7FEFF 		bl	strcmp
 464              	.LVL49:
 465 0238 18B9     		cbnz	r0, .L34
 123:esp07.c       ****         working.id = 27;
 466              		.loc 1 123 0
 467 023a 1B23     		movs	r3, #27
 468 023c 8DF88430 		strb	r3, [sp, #132]
 469 0240 02E0     		b	.L9
 470              	.L34:
 124:esp07.c       ****     else
 125:esp07.c       ****         working.id = 0;   
 471              		.loc 1 125 0
 472 0242 0023     		movs	r3, #0
 473 0244 8DF88430 		strb	r3, [sp, #132]
 474              	.L9:
 126:esp07.c       **** 
 127:esp07.c       ****     return working;
 475              		.loc 1 127 0
 476 0248 3046     		mov	r0, r6
 477 024a 01A9     		add	r1, sp, #4
 478 024c 8322     		movs	r2, #131
 479 024e FFF7FEFF 		bl	memcpy
 480              	.LVL50:
 128:esp07.c       **** }
 481              		.loc 1 128 0
 482 0252 3046     		mov	r0, r6
 483 0254 22B0     		add	sp, sp, #136
 484              		.cfi_def_cfa_offset 16
 485              		@ sp needed
 486 0256 70BD     		pop	{r4, r5, r6, pc}
 487              	.LVL51:
 488              	.L37:
 489              		.align	2
 490              	.L36:
 491 0258 84000000 		.word	.LC7
 492 025c 8C000000 		.word	.LC8
 493 0260 94000000 		.word	.LC9
 494 0264 9C000000 		.word	.LC10
 495 0268 A0000000 		.word	.LC11
 496 026c A8000000 		.word	.LC12
 497 0270 AC000000 		.word	.LC13
 498 0274 B4000000 		.word	.LC14
 499 0278 BC000000 		.word	.LC15
ARM GAS  C:\Users\RYANKE~1\AppData\Local\Temp\ccn15oBT.s 			page 12


 500 027c C4000000 		.word	.LC16
 501 0280 D0000000 		.word	.LC17
 502 0284 DC000000 		.word	.LC18
 503 0288 E4000000 		.word	.LC19
 504 028c F4000000 		.word	.LC20
 505 0290 FC000000 		.word	.LC21
 506 0294 04010000 		.word	.LC22
 507 0298 0C010000 		.word	.LC23
 508 029c 14010000 		.word	.LC24
 509 02a0 1C010000 		.word	.LC25
 510 02a4 24010000 		.word	.LC26
 511 02a8 2C010000 		.word	.LC27
 512 02ac 34010000 		.word	.LC28
 513 02b0 3C010000 		.word	.LC29
 514 02b4 44010000 		.word	.LC30
 515 02b8 4C010000 		.word	.LC31
 516 02bc 54010000 		.word	.LC32
 517              		.cfi_endproc
 518              	.LFE64:
 519              		.size	ESP07_Parse, .-ESP07_Parse
 520              		.section	.text.ESP07_SendAck,"ax",%progbits
 521              		.align	2
 522              		.global	ESP07_SendAck
 523              		.thumb
 524              		.thumb_func
 525              		.type	ESP07_SendAck, %function
 526              	ESP07_SendAck:
 527              	.LFB65:
 129:esp07.c       **** 
 130:esp07.c       **** void ESP07_SendAck()
 131:esp07.c       **** {
 528              		.loc 1 131 0
 529              		.cfi_startproc
 530              		@ args = 0, pretend = 0, frame = 0
 531              		@ frame_needed = 0, uses_anonymous_args = 0
 532 0000 08B5     		push	{r3, lr}
 533              		.cfi_def_cfa_offset 8
 534              		.cfi_offset 3, -8
 535              		.cfi_offset 14, -4
 132:esp07.c       ****     ESP07_UART_PutString("AT+CIPSEND=0,12\r\n");
 536              		.loc 1 132 0
 537 0002 0548     		ldr	r0, .L40
 538 0004 FFF7FEFF 		bl	ESP07_UART_PutString
 539              	.LVL52:
 133:esp07.c       ****     CyDelay(20);
 540              		.loc 1 133 0
 541 0008 1420     		movs	r0, #20
 542 000a FFF7FEFF 		bl	CyDelay
 543              	.LVL53:
 134:esp07.c       ****     ESP07_UART_PutString("ESP07> ACK\r\n");
 544              		.loc 1 134 0
 545 000e 0348     		ldr	r0, .L40+4
 546 0010 FFF7FEFF 		bl	ESP07_UART_PutString
 547              	.LVL54:
 548 0014 08BD     		pop	{r3, pc}
 549              	.L41:
 550 0016 00BF     		.align	2
ARM GAS  C:\Users\RYANKE~1\AppData\Local\Temp\ccn15oBT.s 			page 13


 551              	.L40:
 552 0018 5C010000 		.word	.LC33
 553 001c 70010000 		.word	.LC34
 554              		.cfi_endproc
 555              	.LFE65:
 556              		.size	ESP07_SendAck, .-ESP07_SendAck
 557              		.section	.rodata.str1.4,"aMS",%progbits,1
 558              		.align	2
 559              	.LC0:
 560 0000 41542B52 		.ascii	"AT+RST\015\012\000"
 560      53540D0A 
 560      00
 561 0009 000000   		.space	3
 562              	.LC1:
 563 000c 41540D0A 		.ascii	"AT\015\012\000"
 563      00
 564 0011 000000   		.space	3
 565              	.LC2:
 566 0014 41544530 		.ascii	"ATE0\015\012\000"
 566      0D0A00
 567 001b 00       		.space	1
 568              	.LC3:
 569 001c 41542B43 		.ascii	"AT+CIPMODE=0\015\012\000"
 569      49504D4F 
 569      44453D30 
 569      0D0A00
 570 002b 00       		.space	1
 571              	.LC4:
 572 002c 41542B43 		.ascii	"AT+CIPMUX=1\015\012\000"
 572      49504D55 
 572      583D310D 
 572      0A00
 573 003a 0000     		.space	2
 574              	.LC5:
 575 003c 41542B43 		.ascii	"AT+CWSAP=\"4DShoot Prototype\",\"hhwwguak\",1,3,4,0"
 575      57534150 
 575      3D223444 
 575      53686F6F 
 575      74205072 
 576 006b 0D0A00   		.ascii	"\015\012\000"
 577 006e 0000     		.space	2
 578              	.LC6:
 579 0070 41542B43 		.ascii	"AT+CIPSERVER=1,80\015\012\000"
 579      49505345 
 579      52564552 
 579      3D312C38 
 579      300D0A00 
 580              	.LC7:
 581 0084 2B495044 		.ascii	"+IPD,\000"
 581      2C00
 582 008a 0000     		.space	2
 583              	.LC8:
 584 008c 4C454420 		.ascii	"LED ON\000"
 584      4F4E00
 585 0093 00       		.space	1
 586              	.LC9:
 587 0094 4C454420 		.ascii	"LED OFF\000"
ARM GAS  C:\Users\RYANKE~1\AppData\Local\Temp\ccn15oBT.s 			page 14


 587      4F464600 
 588              	.LC10:
 589 009c 4F4B00   		.ascii	"OK\000"
 590 009f 00       		.space	1
 591              	.LC11:
 592 00a0 72656164 		.ascii	"ready\000"
 592      7900
 593 00a6 0000     		.space	2
 594              	.LC12:
 595 00a8 3E2000   		.ascii	"> \000"
 596 00ab 00       		.space	1
 597              	.LC13:
 598 00ac 52656376 		.ascii	"Recv\000"
 598      00
 599 00b1 000000   		.space	3
 600              	.LC14:
 601 00b4 53454E44 		.ascii	"SEND OK\000"
 601      204F4B00 
 602              	.LC15:
 603 00bc 4552524F 		.ascii	"ERROR\000"
 603      5200
 604 00c2 0000     		.space	2
 605              	.LC16:
 606 00c4 302C434F 		.ascii	"0,CONNECT\000"
 606      4E4E4543 
 606      5400
 607 00ce 0000     		.space	2
 608              	.LC17:
 609 00d0 302C434C 		.ascii	"0,CLOSED\000"
 609      4F534544 
 609      00
 610 00d9 000000   		.space	3
 611              	.LC18:
 612 00dc 44554D50 		.ascii	"DUMP\000"
 612      00
 613 00e1 000000   		.space	3
 614              	.LC19:
 615 00e4 302C434F 		.ascii	"0,CONNECT FAIL\000"
 615      4E4E4543 
 615      54204641 
 615      494C00
 616 00f3 00       		.space	1
 617              	.LC20:
 618 00f4 52455345 		.ascii	"RESET\000"
 618      5400
 619 00fa 0000     		.space	2
 620              	.LC21:
 621 00fc 4C46545F 		.ascii	"LFT_FWD\000"
 621      46574400 
 622              	.LC22:
 623 0104 4C46545F 		.ascii	"LFT_BCK\000"
 623      42434B00 
 624              	.LC23:
 625 010c 5247545F 		.ascii	"RGT_FWD\000"
 625      46574400 
 626              	.LC24:
 627 0114 5247545F 		.ascii	"RGT_BCK\000"
ARM GAS  C:\Users\RYANKE~1\AppData\Local\Temp\ccn15oBT.s 			page 15


 627      42434B00 
 628              	.LC25:
 629 011c 414C4C5F 		.ascii	"ALL_FWD\000"
 629      46574400 
 630              	.LC26:
 631 0124 414C4C5F 		.ascii	"ALL_BCK\000"
 631      42434B00 
 632              	.LC27:
 633 012c 524F5441 		.ascii	"ROTATE\000"
 633      544500
 634 0133 00       		.space	1
 635              	.LC28:
 636 0134 4D4F5645 		.ascii	"MOVE\000"
 636      00
 637 0139 000000   		.space	3
 638              	.LC29:
 639 013c 434F4F52 		.ascii	"COORD\000"
 639      4400
 640 0142 0000     		.space	2
 641              	.LC30:
 642 0144 48454144 		.ascii	"HEADING\000"
 642      494E4700 
 643              	.LC31:
 644 014c 4E504F4C 		.ascii	"NPOLYG\000"
 644      594700
 645 0153 00       		.space	1
 646              	.LC32:
 647 0154 53544F50 		.ascii	"STOP\000"
 647      00
 648 0159 000000   		.space	3
 649              	.LC33:
 650 015c 41542B43 		.ascii	"AT+CIPSEND=0,12\015\012\000"
 650      49505345 
 650      4E443D30 
 650      2C31320D 
 650      0A00
 651 016e 0000     		.space	2
 652              	.LC34:
 653 0170 45535030 		.ascii	"ESP07> ACK\015\012\000"
 653      373E2041 
 653      434B0D0A 
 653      00
 654 017d 000000   		.text
 655              	.Letext0:
 656              		.file 2 "c:\\program files (x86)\\cypress\\psoc creator\\4.0\\psoc creator\\import\\gnu\\arm\\4.9.
 657              		.file 3 "c:\\program files (x86)\\cypress\\psoc creator\\4.0\\psoc creator\\import\\gnu\\arm\\4.9.
 658              		.file 4 "Generated_Source\\PSoC5/cytypes.h"
 659              		.file 5 "c:\\program files (x86)\\cypress\\psoc creator\\4.0\\psoc creator\\import\\gnu\\arm\\4.9.
 660              		.file 6 "esp07.h"
 661              		.file 7 "Generated_Source\\PSoC5/ESP07_UART.h"
 662              		.file 8 "Generated_Source\\PSoC5/CyLib.h"
 663              		.file 9 "c:\\program files (x86)\\cypress\\psoc creator\\4.0\\psoc creator\\import\\gnu\\arm\\4.9.
 664              		.file 10 "Generated_Source\\PSoC5/core_cm3.h"