ARM GAS  C:\Users\DEFAUL~1.X10\AppData\Local\Temp\cc6vVMH6.s 			page 1


   1              		.syntax unified
   2              		.cpu cortex-m3
   3              		.fpu softvfp
   4              		.eabi_attribute 20, 1
   5              		.eabi_attribute 21, 1
   6              		.eabi_attribute 23, 3
   7              		.eabi_attribute 24, 1
   8              		.eabi_attribute 25, 1
   9              		.eabi_attribute 26, 1
  10              		.eabi_attribute 30, 1
  11              		.eabi_attribute 34, 1
  12              		.eabi_attribute 18, 4
  13              		.thumb
  14              		.file	"ft232.c"
  15              		.text
  16              	.Ltext0:
  17              		.cfi_sections	.debug_frame
  18              		.section	.text.FT232_Send,"ax",%progbits
  19              		.align	2
  20              		.global	FT232_Send
  21              		.thumb
  22              		.thumb_func
  23              		.type	FT232_Send, %function
  24              	FT232_Send:
  25              	.LFB63:
  26              		.file 1 "ft232.c"
   1:ft232.c       **** /////////////////////////////////////////////////////////////////////////////////
   2:ft232.c       **** /////////////////////////////////////////////////////////////////////////////////
   3:ft232.c       **** /// Copyright Chad Hensley 2017                                               ///
   4:ft232.c       **** /// All Rights Reserved                                                       ///
   5:ft232.c       **** /// UNPUBLISHED, LICENSED SOFTWARE.                                           ///
   6:ft232.c       **** ///                                                                           ///
   7:ft232.c       **** /// CONFIDENTIAL AND PROPRIETARY INFORMATION                                  ///
   8:ft232.c       **** /// WHICH IS THE PROPERTY OF THE COPYRIGHT HOLDER                             ///
   9:ft232.c       **** ///                                                                           ///
  10:ft232.c       **** /// File:       ft232.c                                                       ///
  11:ft232.c       **** /// Function:   4DShoot Controller FT232 UART Firmware                        ///
  12:ft232.c       **** /// Date:       28 January 2017                                               ///
  13:ft232.c       **** /// Target:     CY8C5888LTI-LP097                                             ///
  14:ft232.c       **** /// Software:   PSoC Creator 4.0 Update 1                                     ///
  15:ft232.c       **** /// Author:     Matt Cauvel, Ryan Kelley                                      ///
  16:ft232.c       **** /// Revisions:                                                                ///
  17:ft232.c       **** ///             0.A - 28/01/2017 - File Created                               ///
  18:ft232.c       **** ///                                                                           ///
  19:ft232.c       **** /////////////////////////////////////////////////////////////////////////////////
  20:ft232.c       **** /////////////////////////////////////////////////////////////////////////////////
  21:ft232.c       **** #include "ft232.h"                                                            ///
  22:ft232.c       **** /////////////////////////////////////////////////////////////////////////////////
  23:ft232.c       **** 
  24:ft232.c       **** void FT232_Send(const char data[], uint8_t length)
  25:ft232.c       **** {
  27              		.loc 1 25 0
  28              		.cfi_startproc
  29              		@ args = 0, pretend = 0, frame = 0
  30              		@ frame_needed = 0, uses_anonymous_args = 0
  31              	.LVL0:
  32 0000 70B5     		push	{r4, r5, r6, lr}
ARM GAS  C:\Users\DEFAUL~1.X10\AppData\Local\Temp\cc6vVMH6.s 			page 2


  33              		.cfi_def_cfa_offset 16
  34              		.cfi_offset 4, -16
  35              		.cfi_offset 5, -12
  36              		.cfi_offset 6, -8
  37              		.cfi_offset 14, -4
  38 0002 0646     		mov	r6, r0
  39 0004 0D46     		mov	r5, r1
  40              	.LVL1:
  26:ft232.c       ****     uint8_t index;
  27:ft232.c       ****     for (index = 0; index < length; index++)
  41              		.loc 1 27 0
  42 0006 0024     		movs	r4, #0
  43 0008 04E0     		b	.L2
  44              	.LVL2:
  45              	.L3:
  28:ft232.c       ****     {
  29:ft232.c       ****         FT232_UART_PutChar(data[index]);
  46              		.loc 1 29 0 discriminator 3
  47 000a 305D     		ldrb	r0, [r6, r4]	@ zero_extendqisi2
  48 000c FFF7FEFF 		bl	FT232_UART_PutChar
  49              	.LVL3:
  27:ft232.c       ****     {
  50              		.loc 1 27 0 discriminator 3
  51 0010 0134     		adds	r4, r4, #1
  52              	.LVL4:
  53 0012 E4B2     		uxtb	r4, r4
  54              	.LVL5:
  55              	.L2:
  27:ft232.c       ****     {
  56              		.loc 1 27 0 is_stmt 0 discriminator 1
  57 0014 AC42     		cmp	r4, r5
  58 0016 F8D3     		bcc	.L3
  30:ft232.c       ****     }
  31:ft232.c       ****     return;
  32:ft232.c       **** }...
  59              		.loc 1 32 0 is_stmt 1
  60 0018 70BD     		pop	{r4, r5, r6, pc}
  61              		.cfi_endproc
  62              	.LFE63:
  63              		.size	FT232_Send, .-FT232_Send
  64 001a 00BF     		.text
  65              	.Letext0:
  66              		.file 2 "d:\\psoc creator\\4.0\\psoc creator\\import\\gnu\\arm\\4.9.3\\arm-none-eabi\\include\\mac
  67              		.file 3 "d:\\psoc creator\\4.0\\psoc creator\\import\\gnu\\arm\\4.9.3\\arm-none-eabi\\include\\std
  68              		.file 4 "Generated_Source\\PSoC5/cytypes.h"
  69              		.file 5 "generic.h"
  70              		.file 6 "ft232.h"
  71              		.file 7 "Generated_Source\\PSoC5/core_cm3.h"
  72              		.file 8 "Generated_Source\\PSoC5/FT232_UART.h"