ARM GAS  C:\Users\DEFAUL~1.X10\AppData\Local\Temp\cc8EDIuh.s 			page 1


   1              		.syntax unified
   2              		.cpu cortex-m3
   3              		.fpu softvfp
   4              		.eabi_attribute 20, 1
   5              		.eabi_attribute 21, 1
   6              		.eabi_attribute 23, 3
   7              		.eabi_attribute 24, 1
   8              		.eabi_attribute 25, 1
   9              		.eabi_attribute 26, 1
  10              		.eabi_attribute 30, 1
  11              		.eabi_attribute 34, 1
  12              		.eabi_attribute 18, 4
  13              		.thumb
  14              		.file	"general.c"
  15              		.text
  16              	.Ltext0:
  17              		.cfi_sections	.debug_frame
  18              		.section	.text.isMatch,"ax",%progbits
  19              		.align	2
  20              		.global	isMatch
  21              		.thumb
  22              		.thumb_func
  23              		.type	isMatch, %function
  24              	isMatch:
  25              	.LFB63:
  26              		.file 1 "general.c"
   1:general.c     **** /////////////////////////////////////////////////////////////////////////////////
   2:general.c     **** /////////////////////////////////////////////////////////////////////////////////
   3:general.c     **** /// Copyright Chad Hensley 2017                                               ///
   4:general.c     **** /// All Rights Reserved                                                       ///
   5:general.c     **** /// UNPUBLISHED, LICENSED SOFTWARE.                                           ///
   6:general.c     **** ///                                                                           ///
   7:general.c     **** /// CONFIDENTIAL AND PROPRIETARY INFORMATION                                  ///
   8:general.c     **** /// WHICH IS THE PROPERTY OF THE COPYRIGHT HOLDER                             ///
   9:general.c     **** ///                                                                           ///
  10:general.c     **** /// File:       general.h                                                     ///
  11:general.c     **** /// Function:   4DShoot Controller General Purpose Operations                 ///
  12:general.c     **** /// Date:       28 January 2017                                               ///
  13:general.c     **** /// Target:     CY8C5888LTI-LP097                                             ///
  14:general.c     **** /// Software:   PSoC Creator 4.0 Update 1                                     ///
  15:general.c     **** /// Author:     Matt Cauvel, Ryan Kelley                                      ///
  16:general.c     **** /// Revisions:                                                                ///
  17:general.c     **** ///             0.A - 28/01/2017 - File Created                               ///
  18:general.c     **** ///                                                                           ///
  19:general.c     **** /////////////////////////////////////////////////////////////////////////////////
  20:general.c     **** /////////////////////////////////////////////////////////////////////////////////
  21:general.c     **** #include "general.h"                                                          ///
  22:general.c     **** /////////////////////////////////////////////////////////////////////////////////
  23:general.c     **** 
  24:general.c     **** uint8_t isMatch(const char a[], const char b[], uint8_t length)
  25:general.c     **** {
  27              		.loc 1 25 0
  28              		.cfi_startproc
  29              		@ args = 0, pretend = 0, frame = 0
  30              		@ frame_needed = 0, uses_anonymous_args = 0
  31              		@ link register save eliminated.
  32              	.LVL0:
ARM GAS  C:\Users\DEFAUL~1.X10\AppData\Local\Temp\cc8EDIuh.s 			page 2


  33 0000 70B4     		push	{r4, r5, r6}
  34              		.cfi_def_cfa_offset 12
  35              		.cfi_offset 4, -12
  36              		.cfi_offset 5, -8
  37              		.cfi_offset 6, -4
  38 0002 0646     		mov	r6, r0
  39              	.LVL1:
  26:general.c     ****     uint8_t index;
  27:general.c     ****     uint8_t equal = 1;
  40              		.loc 1 27 0
  41 0004 0120     		movs	r0, #1
  42              	.LVL2:
  28:general.c     ****     for (index = 0; index < length && equal; index++)
  43              		.loc 1 28 0
  44 0006 0023     		movs	r3, #0
  45 0008 06E0     		b	.L2
  46              	.LVL3:
  47              	.L5:
  29:general.c     ****         if(a[index] != b[index])
  48              		.loc 1 29 0
  49 000a F55C     		ldrb	r5, [r6, r3]	@ zero_extendqisi2
  50 000c CC5C     		ldrb	r4, [r1, r3]	@ zero_extendqisi2
  51 000e A542     		cmp	r5, r4
  52 0010 00D0     		beq	.L3
  30:general.c     ****             equal = 0;
  53              		.loc 1 30 0
  54 0012 0020     		movs	r0, #0
  55              	.LVL4:
  56              	.L3:
  28:general.c     ****     for (index = 0; index < length && equal; index++)
  57              		.loc 1 28 0 discriminator 2
  58 0014 0133     		adds	r3, r3, #1
  59              	.LVL5:
  60 0016 DBB2     		uxtb	r3, r3
  61              	.LVL6:
  62              	.L2:
  28:general.c     ****     for (index = 0; index < length && equal; index++)
  63              		.loc 1 28 0 is_stmt 0 discriminator 1
  64 0018 9342     		cmp	r3, r2
  65 001a 01D2     		bcs	.L4
  28:general.c     ****     for (index = 0; index < length && equal; index++)
  66              		.loc 1 28 0 discriminator 3
  67 001c 0028     		cmp	r0, #0
  68 001e F4D1     		bne	.L5
  69              	.L4:
  31:general.c     ****     return equal;
  32:general.c     **** }...
  70              		.loc 1 32 0 is_stmt 1
  71 0020 70BC     		pop	{r4, r5, r6}
  72              		.cfi_restore 6
  73              		.cfi_restore 5
  74              		.cfi_restore 4
  75              		.cfi_def_cfa_offset 0
  76              	.LVL7:
  77 0022 7047     		bx	lr
  78              		.cfi_endproc
  79              	.LFE63:
ARM GAS  C:\Users\DEFAUL~1.X10\AppData\Local\Temp\cc8EDIuh.s 			page 3


  80              		.size	isMatch, .-isMatch
  81              		.text
  82              	.Letext0:
  83              		.file 2 "d:\\psoc creator\\4.0\\psoc creator\\import\\gnu\\arm\\4.9.3\\arm-none-eabi\\include\\mac
  84              		.file 3 "d:\\psoc creator\\4.0\\psoc creator\\import\\gnu\\arm\\4.9.3\\arm-none-eabi\\include\\std
  85              		.file 4 "Generated_Source\\PSoC5/core_cm3.h"