ARM GAS  C:\Users\RYANKE~1\AppData\Local\Temp\cc7e3ht6.s 			page 1


   1              		.syntax unified
   2              		.cpu cortex-m3
   3              		.fpu softvfp
   4              		.eabi_attribute 20, 1
   5              		.eabi_attribute 21, 1
   6              		.eabi_attribute 23, 3
   7              		.eabi_attribute 24, 1
   8              		.eabi_attribute 25, 1
   9              		.eabi_attribute 26, 1
  10              		.eabi_attribute 30, 1
  11              		.eabi_attribute 34, 1
  12              		.eabi_attribute 18, 4
  13              		.thumb
  14              		.file	"generic.c"
  15              		.text
  16              	.Ltext0:
  17              		.cfi_sections	.debug_frame
  18              		.section	.text.cArray_toUnsigned,"ax",%progbits
  19              		.align	2
  20              		.global	cArray_toUnsigned
  21              		.thumb
  22              		.thumb_func
  23              		.type	cArray_toUnsigned, %function
  24              	cArray_toUnsigned:
  25              	.LFB63:
  26              		.file 1 "generic.c"
   1:generic.c     **** /////////////////////////////////////////////////////////////////////////////////
   2:generic.c     **** /////////////////////////////////////////////////////////////////////////////////
   3:generic.c     **** /// Copyright Chad Hensley 2017                                               ///
   4:generic.c     **** /// All Rights Reserved                                                       ///
   5:generic.c     **** /// UNPUBLISHED, LICENSED SOFTWARE.                                           ///
   6:generic.c     **** ///                                                                           ///
   7:generic.c     **** /// CONFIDENTIAL AND PROPRIETARY INFORMATION                                  ///
   8:generic.c     **** /// WHICH IS THE PROPERTY OF THE COPYRIGHT HOLDER                             ///
   9:generic.c     **** ///                                                                           ///
  10:generic.c     **** /// File:       generic.h                                                     ///
  11:generic.c     **** /// Function:   4DShoot Controller General Purpose Operations                 ///
  12:generic.c     **** /// Date:       28 January 2017                                               ///
  13:generic.c     **** /// Target:     CY8C5888LTI-LP097                                             ///
  14:generic.c     **** /// Software:   PSoC Creator 4.0 Update 1                                     ///
  15:generic.c     **** /// Author:     Matt Cauvel, Ryan Kelley                                      ///
  16:generic.c     **** /// Revisions:                                                                ///
  17:generic.c     **** ///             0.A - 28/01/2017 - File Created                               ///
  18:generic.c     **** ///                                                                           ///
  19:generic.c     **** /////////////////////////////////////////////////////////////////////////////////
  20:generic.c     **** /////////////////////////////////////////////////////////////////////////////////
  21:generic.c     **** #include "generic.h"                                                          ///
  22:generic.c     **** /////////////////////////////////////////////////////////////////////////////////
  23:generic.c     **** 
  24:generic.c     **** // Convert array of characters to unsigned integer
  25:generic.c     **** uint8_t cArray_toUnsigned(const char a[], uint8_t length)
  26:generic.c     **** {
  27              		.loc 1 26 0
  28              		.cfi_startproc
  29              		@ args = 0, pretend = 0, frame = 0
  30              		@ frame_needed = 0, uses_anonymous_args = 0
  31              		@ link register save eliminated.
ARM GAS  C:\Users\RYANKE~1\AppData\Local\Temp\cc7e3ht6.s 			page 2


  32              	.LVL0:
  33 0000 70B4     		push	{r4, r5, r6}
  34              		.cfi_def_cfa_offset 12
  35              		.cfi_offset 4, -12
  36              		.cfi_offset 5, -8
  37              		.cfi_offset 6, -4
  38 0002 0646     		mov	r6, r0
  39              	.LVL1:
  27:generic.c     ****     uint8_t index;
  28:generic.c     ****     uint8_t power;
  29:generic.c     ****     uint8_t value = 0;
  40              		.loc 1 29 0
  41 0004 0020     		movs	r0, #0
  42              	.LVL2:
  30:generic.c     ****     uint8_t temp = 0;
  31:generic.c     ****     for(index = 0; index < length; index++)
  43              		.loc 1 31 0
  44 0006 0546     		mov	r5, r0
  45 0008 11E0     		b	.L2
  46              	.LVL3:
  47              	.L5:
  32:generic.c     ****     {
  33:generic.c     ****         temp = a[index] - '0';
  48              		.loc 1 33 0
  49 000a 735D     		ldrb	r3, [r6, r5]	@ zero_extendqisi2
  50 000c 303B     		subs	r3, r3, #48
  51 000e DBB2     		uxtb	r3, r3
  52              	.LVL4:
  34:generic.c     ****         for(power = 1; power < length - index; power++)
  53              		.loc 1 34 0
  54 0010 0122     		movs	r2, #1
  55 0012 05E0     		b	.L3
  56              	.LVL5:
  57              	.L4:
  35:generic.c     ****             temp = temp * 10;
  58              		.loc 1 35 0 discriminator 3
  59 0014 03EB8303 		add	r3, r3, r3, lsl #2
  60              	.LVL6:
  61 0018 5C00     		lsls	r4, r3, #1
  62 001a E3B2     		uxtb	r3, r4
  63              	.LVL7:
  34:generic.c     ****         for(power = 1; power < length - index; power++)
  64              		.loc 1 34 0 discriminator 3
  65 001c 0132     		adds	r2, r2, #1
  66              	.LVL8:
  67 001e D2B2     		uxtb	r2, r2
  68              	.LVL9:
  69              	.L3:
  34:generic.c     ****         for(power = 1; power < length - index; power++)
  70              		.loc 1 34 0 is_stmt 0 discriminator 1
  71 0020 4C1B     		subs	r4, r1, r5
  72 0022 A242     		cmp	r2, r4
  73 0024 F6DB     		blt	.L4
  36:generic.c     ****         value = value + temp;
  74              		.loc 1 36 0 is_stmt 1 discriminator 2
  75 0026 1844     		add	r0, r0, r3
  76              	.LVL10:
ARM GAS  C:\Users\RYANKE~1\AppData\Local\Temp\cc7e3ht6.s 			page 3


  77 0028 C0B2     		uxtb	r0, r0
  78              	.LVL11:
  31:generic.c     ****     {
  79              		.loc 1 31 0 discriminator 2
  80 002a 0135     		adds	r5, r5, #1
  81              	.LVL12:
  82 002c EDB2     		uxtb	r5, r5
  83              	.LVL13:
  84              	.L2:
  31:generic.c     ****     {
  85              		.loc 1 31 0 is_stmt 0 discriminator 1
  86 002e 8D42     		cmp	r5, r1
  87 0030 EBD3     		bcc	.L5
  37:generic.c     ****     }    
  38:generic.c     ****     return value;
  39:generic.c     **** }
  88              		.loc 1 39 0 is_stmt 1
  89 0032 70BC     		pop	{r4, r5, r6}
  90              		.cfi_restore 6
  91              		.cfi_restore 5
  92              		.cfi_restore 4
  93              		.cfi_def_cfa_offset 0
  94              	.LVL14:
  95 0034 7047     		bx	lr
  96              		.cfi_endproc
  97              	.LFE63:
  98              		.size	cArray_toUnsigned, .-cArray_toUnsigned
  99 0036 00BF     		.section	.text.setSpeed,"ax",%progbits
 100              		.align	2
 101              		.global	setSpeed
 102              		.thumb
 103              		.thumb_func
 104              		.type	setSpeed, %function
 105              	setSpeed:
 106              	.LFB64:
  40:generic.c     **** 
  41:generic.c     **** // Set motor PWM duty cycle, direction
  42:generic.c     **** // n - Motor number:        spd: Speed          dir: Direction
  43:generic.c     **** //      1: Left Front           0 -> 100            0:  Short Brake
  44:generic.c     **** //      2: Right Front                              1:  Forward
  45:generic.c     **** //      3: Right Rear                               -1: Reverse
  46:generic.c     **** //      4: Left Rear
  47:generic.c     **** void setSpeed(uint8_t n, uint8_t spd, int8_t dir)
  48:generic.c     **** {  
 107              		.loc 1 48 0
 108              		.cfi_startproc
 109              		@ args = 0, pretend = 0, frame = 0
 110              		@ frame_needed = 0, uses_anonymous_args = 0
 111              	.LVL15:
 112 0000 10B5     		push	{r4, lr}
 113              		.cfi_def_cfa_offset 8
 114              		.cfi_offset 4, -8
 115              		.cfi_offset 14, -4
 116 0002 0C46     		mov	r4, r1
 117              	.LVL16:
  49:generic.c     ****     uint8_t direction = 0b00000000;
  50:generic.c     ****     if      (dir == -1) {direction = 0b00000010;}
ARM GAS  C:\Users\RYANKE~1\AppData\Local\Temp\cc7e3ht6.s 			page 4


 118              		.loc 1 50 0
 119 0004 B2F1FF3F 		cmp	r2, #-1
 120 0008 02D0     		beq	.L16
  51:generic.c     ****     else if (dir == 1)  {direction = 0b00000001;}
 121              		.loc 1 51 0
 122 000a 012A     		cmp	r2, #1
 123 000c 02D1     		bne	.L17
 124 000e 02E0     		b	.L8
 125              	.L16:
  50:generic.c     ****     else if (dir == 1)  {direction = 0b00000001;}
 126              		.loc 1 50 0
 127 0010 0222     		movs	r2, #2
 128              	.LVL17:
 129 0012 00E0     		b	.L8
 130              	.LVL18:
 131              	.L17:
  52:generic.c     ****     else                {direction = 0b00000011;}
 132              		.loc 1 52 0
 133 0014 0322     		movs	r2, #3
 134              	.LVL19:
 135              	.L8:
  53:generic.c     ****     
  54:generic.c     ****     switch(n)
 136              		.loc 1 54 0
 137 0016 431E     		subs	r3, r0, #1
 138 0018 032B     		cmp	r3, #3
 139 001a 1FD8     		bhi	.L9
 140 001c DFE803F0 		tbb	[pc, r3]
 141              	.LVL20:
 142              	.L11:
 143 0020 02       		.byte	(.L10-.L11)/2
 144 0021 09       		.byte	(.L12-.L11)/2
 145 0022 10       		.byte	(.L13-.L11)/2
 146 0023 17       		.byte	(.L14-.L11)/2
 147              		.p2align 1
 148              	.L10:
  55:generic.c     ****     {
  56:generic.c     ****         case 1:  { Direction_Left_Front_Write(direction & 0x03);
 149              		.loc 1 56 0
 150 0024 1046     		mov	r0, r2
 151              	.LVL21:
 152 0026 FFF7FEFF 		bl	Direction_Left_Front_Write
 153              	.LVL22:
  57:generic.c     ****                    PWM_Left_Front_WriteCompare(spd);
 154              		.loc 1 57 0
 155 002a 2046     		mov	r0, r4
 156 002c FFF7FEFF 		bl	PWM_Left_Front_WriteCompare
 157              	.LVL23:
  58:generic.c     ****                    break; }        
 158              		.loc 1 58 0
 159 0030 10BD     		pop	{r4, pc}
 160              	.LVL24:
 161              	.L12:
  59:generic.c     ****         case 2:  { Direction_Right_Front_Write(direction & 0x03);
 162              		.loc 1 59 0
 163 0032 1046     		mov	r0, r2
 164              	.LVL25:
ARM GAS  C:\Users\RYANKE~1\AppData\Local\Temp\cc7e3ht6.s 			page 5


 165 0034 FFF7FEFF 		bl	Direction_Right_Front_Write
 166              	.LVL26:
  60:generic.c     ****                    PWM_Right_Front_WriteCompare(spd);
 167              		.loc 1 60 0
 168 0038 2046     		mov	r0, r4
 169 003a FFF7FEFF 		bl	PWM_Right_Front_WriteCompare
 170              	.LVL27:
  61:generic.c     ****                    break; }        
 171              		.loc 1 61 0
 172 003e 10BD     		pop	{r4, pc}
 173              	.LVL28:
 174              	.L13:
  62:generic.c     ****         case 3:  { Direction_Right_Rear_Write(direction & 0x03);
 175              		.loc 1 62 0
 176 0040 1046     		mov	r0, r2
 177              	.LVL29:
 178 0042 FFF7FEFF 		bl	Direction_Right_Rear_Write
 179              	.LVL30:
  63:generic.c     ****                    PWM_Right_Rear_WriteCompare(spd);
 180              		.loc 1 63 0
 181 0046 2046     		mov	r0, r4
 182 0048 FFF7FEFF 		bl	PWM_Right_Rear_WriteCompare
 183              	.LVL31:
  64:generic.c     ****                    break; }        
 184              		.loc 1 64 0
 185 004c 10BD     		pop	{r4, pc}
 186              	.LVL32:
 187              	.L14:
  65:generic.c     ****         case 4:  { Direction_Left_Rear_Write(direction & 0x03);
 188              		.loc 1 65 0
 189 004e 1046     		mov	r0, r2
 190              	.LVL33:
 191 0050 FFF7FEFF 		bl	Direction_Left_Rear_Write
 192              	.LVL34:
  66:generic.c     ****                    PWM_Left_Rear_WriteCompare(spd);
 193              		.loc 1 66 0
 194 0054 2046     		mov	r0, r4
 195 0056 FFF7FEFF 		bl	PWM_Left_Rear_WriteCompare
 196              	.LVL35:
  67:generic.c     ****                    break; }        
 197              		.loc 1 67 0
 198 005a 10BD     		pop	{r4, pc}
 199              	.LVL36:
 200              	.L9:
  68:generic.c     ****         default: { Direction_Left_Front_Write(0x03);
 201              		.loc 1 68 0
 202 005c 0320     		movs	r0, #3
 203              	.LVL37:
 204 005e FFF7FEFF 		bl	Direction_Left_Front_Write
 205              	.LVL38:
  69:generic.c     ****                    Direction_Right_Front_Write(0x03);
 206              		.loc 1 69 0
 207 0062 0320     		movs	r0, #3
 208 0064 FFF7FEFF 		bl	Direction_Right_Front_Write
 209              	.LVL39:
  70:generic.c     ****                    Direction_Left_Rear_Write(0x03);
 210              		.loc 1 70 0
ARM GAS  C:\Users\RYANKE~1\AppData\Local\Temp\cc7e3ht6.s 			page 6


 211 0068 0320     		movs	r0, #3
 212 006a FFF7FEFF 		bl	Direction_Left_Rear_Write
 213              	.LVL40:
  71:generic.c     ****                    Direction_Right_Rear_Write(0x03);
 214              		.loc 1 71 0
 215 006e 0320     		movs	r0, #3
 216 0070 FFF7FEFF 		bl	Direction_Right_Rear_Write
 217              	.LVL41:
  72:generic.c     ****                    PWM_Left_Front_WriteCompare(0);
 218              		.loc 1 72 0
 219 0074 0020     		movs	r0, #0
 220 0076 FFF7FEFF 		bl	PWM_Left_Front_WriteCompare
 221              	.LVL42:
  73:generic.c     ****                    PWM_Right_Front_WriteCompare(0);
 222              		.loc 1 73 0
 223 007a 0020     		movs	r0, #0
 224 007c FFF7FEFF 		bl	PWM_Right_Front_WriteCompare
 225              	.LVL43:
  74:generic.c     ****                    PWM_Right_Rear_WriteCompare(0);
 226              		.loc 1 74 0
 227 0080 0020     		movs	r0, #0
 228 0082 FFF7FEFF 		bl	PWM_Right_Rear_WriteCompare
 229              	.LVL44:
  75:generic.c     ****                    PWM_Left_Rear_WriteCompare(0);
 230              		.loc 1 75 0
 231 0086 0020     		movs	r0, #0
 232 0088 FFF7FEFF 		bl	PWM_Left_Rear_WriteCompare
 233              	.LVL45:
 234 008c 10BD     		pop	{r4, pc}
 235              		.cfi_endproc
 236              	.LFE64:
 237              		.size	setSpeed, .-setSpeed
 238              		.global	__aeabi_i2d
 239              		.global	__aeabi_ddiv
 240              		.global	__aeabi_d2f
 241              		.global	__aeabi_fcmplt
 242              		.global	__aeabi_fmul
 243              		.global	__aeabi_fadd
 244              		.global	__aeabi_fdiv
 245              		.global	__aeabi_f2uiz
 246 008e 00BF     		.section	.text.atan_Approx,"ax",%progbits
 247              		.align	2
 248              		.global	atan_Approx
 249              		.thumb
 250              		.thumb_func
 251              		.type	atan_Approx, %function
 252              	atan_Approx:
 253              	.LFB65:
  76:generic.c     ****                    break; }
  77:generic.c     ****     }
  78:generic.c     ****     return;    
  79:generic.c     **** }
  80:generic.c     **** 
  81:generic.c     **** uint16_t atan_Approx(int16_t x, int16_t y)
  82:generic.c     **** {
 254              		.loc 1 82 0
 255              		.cfi_startproc
ARM GAS  C:\Users\RYANKE~1\AppData\Local\Temp\cc7e3ht6.s 			page 7


 256              		@ args = 0, pretend = 0, frame = 0
 257              		@ frame_needed = 0, uses_anonymous_args = 0
 258              	.LVL46:
 259 0000 2DE9F041 		push	{r4, r5, r6, r7, r8, lr}
 260              		.cfi_def_cfa_offset 24
 261              		.cfi_offset 4, -24
 262              		.cfi_offset 5, -20
 263              		.cfi_offset 6, -16
 264              		.cfi_offset 7, -12
 265              		.cfi_offset 8, -8
 266              		.cfi_offset 14, -4
 267 0004 0C46     		mov	r4, r1
 268              	.LVL47:
  83:generic.c     **** 	uint16_t heading = 0;
  84:generic.c     **** 	uint16_t vector = 0;
  85:generic.c     **** 	if (x != 0 && y != 0)
 269              		.loc 1 85 0
 270 0006 0546     		mov	r5, r0
 271 0008 0028     		cmp	r0, #0
 272 000a 3ED0     		beq	.L32
 273              		.loc 1 85 0 is_stmt 0 discriminator 1
 274 000c 0029     		cmp	r1, #0
 275 000e 3ED0     		beq	.L33
 276              	.LBB2:
  86:generic.c     **** 	{
  87:generic.c     **** 		float z = y * 1.0 / x;
 277              		.loc 1 87 0 is_stmt 1
 278 0010 0846     		mov	r0, r1
 279              	.LVL48:
 280 0012 FFF7FEFF 		bl	__aeabi_i2d
 281              	.LVL49:
 282 0016 0646     		mov	r6, r0
 283 0018 0F46     		mov	r7, r1
 284 001a 2846     		mov	r0, r5
 285 001c FFF7FEFF 		bl	__aeabi_i2d
 286              	.LVL50:
 287 0020 0246     		mov	r2, r0
 288 0022 0B46     		mov	r3, r1
 289 0024 3046     		mov	r0, r6
 290 0026 3946     		mov	r1, r7
 291 0028 FFF7FEFF 		bl	__aeabi_ddiv
 292              	.LVL51:
 293 002c FFF7FEFF 		bl	__aeabi_d2f
 294              	.LVL52:
 295 0030 0646     		mov	r6, r0
 296              	.LVL53:
  88:generic.c     **** 		float b = 0.596227;
  89:generic.c     **** 		if (z < 0) { z = -z; }
 297              		.loc 1 89 0
 298 0032 0021     		movs	r1, #0
 299 0034 FFF7FEFF 		bl	__aeabi_fcmplt
 300              	.LVL54:
 301 0038 08B1     		cbz	r0, .L21
 302              		.loc 1 89 0 is_stmt 0 discriminator 1
 303 003a 06F10046 		add	r6, r6, #-2147483648
 304              	.LVL55:
 305              	.L21:
ARM GAS  C:\Users\RYANKE~1\AppData\Local\Temp\cc7e3ht6.s 			page 8


  90:generic.c     **** 		//vector = 896 * (b*z + z*z) / (1 + 2 * b*z + z*z);
  91:generic.c     ****         vector = (900) * (b*z + z*z) / (1 + 2*b*z + z*z);
 306              		.loc 1 91 0 is_stmt 1
 307 003e 3046     		mov	r0, r6
 308 0040 3649     		ldr	r1, .L43
 309 0042 FFF7FEFF 		bl	__aeabi_fmul
 310              	.LVL56:
 311 0046 8046     		mov	r8, r0
 312 0048 3046     		mov	r0, r6
 313 004a 3146     		mov	r1, r6
 314 004c FFF7FEFF 		bl	__aeabi_fmul
 315              	.LVL57:
 316 0050 0746     		mov	r7, r0
 317 0052 4046     		mov	r0, r8
 318 0054 3946     		mov	r1, r7
 319 0056 FFF7FEFF 		bl	__aeabi_fadd
 320              	.LVL58:
 321 005a 3149     		ldr	r1, .L43+4
 322 005c FFF7FEFF 		bl	__aeabi_fmul
 323              	.LVL59:
 324 0060 8046     		mov	r8, r0
 325 0062 3046     		mov	r0, r6
 326 0064 2F49     		ldr	r1, .L43+8
 327 0066 FFF7FEFF 		bl	__aeabi_fmul
 328              	.LVL60:
 329 006a 4FF07E51 		mov	r1, #1065353216
 330 006e FFF7FEFF 		bl	__aeabi_fadd
 331              	.LVL61:
 332 0072 0146     		mov	r1, r0
 333 0074 3846     		mov	r0, r7
 334 0076 FFF7FEFF 		bl	__aeabi_fadd
 335              	.LVL62:
 336 007a 0146     		mov	r1, r0
 337 007c 4046     		mov	r0, r8
 338 007e FFF7FEFF 		bl	__aeabi_fdiv
 339              	.LVL63:
 340 0082 FFF7FEFF 		bl	__aeabi_f2uiz
 341              	.LVL64:
 342 0086 80B2     		uxth	r0, r0
 343              	.LVL65:
 344 0088 02E0     		b	.L20
 345              	.LVL66:
 346              	.L32:
 347              	.LBE2:
  84:generic.c     **** 	if (x != 0 && y != 0)
 348              		.loc 1 84 0
 349 008a 0020     		movs	r0, #0
 350              	.LVL67:
 351 008c 00E0     		b	.L20
 352              	.LVL68:
 353              	.L33:
 354 008e 0020     		movs	r0, #0
 355              	.LVL69:
 356              	.L20:
  92:generic.c     **** 	}
  93:generic.c     **** 	
  94:generic.c     **** 	if (y == 0 && x == 0)
ARM GAS  C:\Users\RYANKE~1\AppData\Local\Temp\cc7e3ht6.s 			page 9


 357              		.loc 1 94 0
 358 0090 04B9     		cbnz	r4, .L23
 359              		.loc 1 94 0 is_stmt 0 discriminator 1
 360 0092 55B3     		cbz	r5, .L34
 361              	.L23:
  95:generic.c     **** 	{
  96:generic.c     **** 		heading = 0;
  97:generic.c     **** 	}
  98:generic.c     **** 	else if (y == 0 && x > 0)
 362              		.loc 1 98 0 is_stmt 1
 363 0094 0CB9     		cbnz	r4, .L25
 364              		.loc 1 98 0 is_stmt 0 discriminator 1
 365 0096 002D     		cmp	r5, #0
 366 0098 2ADC     		bgt	.L35
 367              	.L25:
  99:generic.c     **** 	{
 100:generic.c     **** 		heading = 0;
 101:generic.c     **** 	}
 102:generic.c     **** 	else if (y > 0 && x > 0)
 368              		.loc 1 102 0 is_stmt 1
 369 009a 002C     		cmp	r4, #0
 370 009c 01DD     		ble	.L26
 371              		.loc 1 102 0 is_stmt 0 discriminator 1
 372 009e 002D     		cmp	r5, #0
 373 00a0 39DC     		bgt	.L24
 374              	.L26:
 103:generic.c     **** 	{
 104:generic.c     **** 		heading = (uint16_t)vector;
 105:generic.c     **** 	}
 106:generic.c     **** 	else if (y > 0 && x == 0)
 375              		.loc 1 106 0 is_stmt 1
 376 00a2 002C     		cmp	r4, #0
 377 00a4 00DD     		ble	.L27
 378              		.loc 1 106 0 is_stmt 0 discriminator 1
 379 00a6 35B3     		cbz	r5, .L36
 380              	.L27:
 107:generic.c     **** 	{
 108:generic.c     **** 		heading = 900;
 109:generic.c     **** 	}
 110:generic.c     **** 	else if (y > 0 && x < 0)
 381              		.loc 1 110 0 is_stmt 1
 382 00a8 002C     		cmp	r4, #0
 383 00aa 06DD     		ble	.L28
 384              		.loc 1 110 0 is_stmt 0 discriminator 1
 385 00ac 002D     		cmp	r5, #0
 386 00ae 04DA     		bge	.L28
 111:generic.c     **** 	{
 112:generic.c     **** 		heading = 1800 - (uint16_t)vector;
 387              		.loc 1 112 0 is_stmt 1
 388 00b0 C0F5E160 		rsb	r0, r0, #1800
 389              	.LVL70:
 390 00b4 80B2     		uxth	r0, r0
 391              	.LVL71:
 392 00b6 BDE8F081 		pop	{r4, r5, r6, r7, r8, pc}
 393              	.LVL72:
 394              	.L28:
 113:generic.c     **** 	}
ARM GAS  C:\Users\RYANKE~1\AppData\Local\Temp\cc7e3ht6.s 			page 10


 114:generic.c     **** 	else if (y == 0 && x < 0)
 395              		.loc 1 114 0
 396 00ba 0CB9     		cbnz	r4, .L29
 397              		.loc 1 114 0 is_stmt 0 discriminator 1
 398 00bc 002D     		cmp	r5, #0
 399 00be 1EDB     		blt	.L37
 400              	.L29:
 115:generic.c     **** 	{
 116:generic.c     **** 		heading = 1800;
 117:generic.c     **** 	}
 118:generic.c     **** 	else if (y < 0 && x < 0)
 401              		.loc 1 118 0 is_stmt 1
 402 00c0 002C     		cmp	r4, #0
 403 00c2 06DA     		bge	.L30
 404              		.loc 1 118 0 is_stmt 0 discriminator 1
 405 00c4 002D     		cmp	r5, #0
 406 00c6 04DA     		bge	.L30
 119:generic.c     **** 	{
 120:generic.c     **** 		heading = 1800 + (uint16_t)vector;
 407              		.loc 1 120 0 is_stmt 1
 408 00c8 00F5E160 		add	r0, r0, #1800
 409              	.LVL73:
 410 00cc 80B2     		uxth	r0, r0
 411              	.LVL74:
 412 00ce BDE8F081 		pop	{r4, r5, r6, r7, r8, pc}
 413              	.LVL75:
 414              	.L30:
 121:generic.c     **** 	}
 122:generic.c     **** 	else if (y < 0 && x == 0)
 415              		.loc 1 122 0
 416 00d2 002C     		cmp	r4, #0
 417 00d4 00DA     		bge	.L31
 418              		.loc 1 122 0 is_stmt 0 discriminator 1
 419 00d6 B5B1     		cbz	r5, .L38
 420              	.L31:
 123:generic.c     **** 	{
 124:generic.c     **** 		heading = 2700;
 125:generic.c     **** 	}
 126:generic.c     **** 	else if (y < 0 && x > 0)
 421              		.loc 1 126 0 is_stmt 1
 422 00d8 002C     		cmp	r4, #0
 423 00da 18DA     		bge	.L39
 424              		.loc 1 126 0 is_stmt 0 discriminator 1
 425 00dc 002D     		cmp	r5, #0
 426 00de 19DD     		ble	.L40
 127:generic.c     **** 	{
 128:generic.c     **** 		heading = 3600 - (uint16_t)vector;
 427              		.loc 1 128 0 is_stmt 1
 428 00e0 C0F56160 		rsb	r0, r0, #3600
 429              	.LVL76:
 430 00e4 80B2     		uxth	r0, r0
 431              	.LVL77:
 432 00e6 BDE8F081 		pop	{r4, r5, r6, r7, r8, pc}
 433              	.LVL78:
 434              	.L34:
  96:generic.c     **** 	}
 435              		.loc 1 96 0
ARM GAS  C:\Users\RYANKE~1\AppData\Local\Temp\cc7e3ht6.s 			page 11


 436 00ea 0020     		movs	r0, #0
 437              	.LVL79:
 438 00ec BDE8F081 		pop	{r4, r5, r6, r7, r8, pc}
 439              	.LVL80:
 440              	.L35:
 100:generic.c     **** 	}
 441              		.loc 1 100 0
 442 00f0 0020     		movs	r0, #0
 443              	.LVL81:
 444 00f2 BDE8F081 		pop	{r4, r5, r6, r7, r8, pc}
 445              	.LVL82:
 446              	.L36:
 108:generic.c     **** 	}
 447              		.loc 1 108 0
 448 00f6 4FF46170 		mov	r0, #900
 449              	.LVL83:
 450 00fa BDE8F081 		pop	{r4, r5, r6, r7, r8, pc}
 451              	.LVL84:
 452              	.L37:
 116:generic.c     **** 	}
 453              		.loc 1 116 0
 454 00fe 4FF4E160 		mov	r0, #1800
 455              	.LVL85:
 456 0102 BDE8F081 		pop	{r4, r5, r6, r7, r8, pc}
 457              	.LVL86:
 458              	.L38:
 124:generic.c     **** 	}
 459              		.loc 1 124 0
 460 0106 40F68C20 		movw	r0, #2700
 461              	.LVL87:
 462 010a BDE8F081 		pop	{r4, r5, r6, r7, r8, pc}
 463              	.LVL88:
 464              	.L39:
  83:generic.c     **** 	uint16_t vector = 0;
 465              		.loc 1 83 0
 466 010e 0020     		movs	r0, #0
 467              	.LVL89:
 468 0110 BDE8F081 		pop	{r4, r5, r6, r7, r8, pc}
 469              	.LVL90:
 470              	.L40:
 471 0114 0020     		movs	r0, #0
 472              	.LVL91:
 473              	.L24:
 129:generic.c     **** 	}
 130:generic.c     **** 
 131:generic.c     **** 	return heading;
 132:generic.c     **** }...
 474              		.loc 1 132 0
 475 0116 BDE8F081 		pop	{r4, r5, r6, r7, r8, pc}
 476              	.L44:
 477 011a 00BF     		.align	2
 478              	.L43:
 479 011c 55A2183F 		.word	1058579029
 480 0120 00006144 		.word	1147207680
 481 0124 55A2983F 		.word	1066967637
 482              		.cfi_endproc
 483              	.LFE65:
ARM GAS  C:\Users\RYANKE~1\AppData\Local\Temp\cc7e3ht6.s 			page 12


 484              		.size	atan_Approx, .-atan_Approx
 485              		.text
 486              	.Letext0:
 487              		.file 2 "c:\\program files (x86)\\cypress\\psoc creator\\4.0\\psoc creator\\import\\gnu\\arm\\4.9.
 488              		.file 3 "c:\\program files (x86)\\cypress\\psoc creator\\4.0\\psoc creator\\import\\gnu\\arm\\4.9.
 489              		.file 4 "Generated_Source\\PSoC5/cytypes.h"
 490              		.file 5 "Generated_Source\\PSoC5/Direction_Left_Front.h"
 491              		.file 6 "Generated_Source\\PSoC5/PWM_Left_Front.h"
 492              		.file 7 "Generated_Source\\PSoC5/Direction_Right_Front.h"
 493              		.file 8 "Generated_Source\\PSoC5/PWM_Right_Front.h"
 494              		.file 9 "Generated_Source\\PSoC5/Direction_Right_Rear.h"
 495              		.file 10 "Generated_Source\\PSoC5/PWM_Right_Rear.h"
 496              		.file 11 "Generated_Source\\PSoC5/Direction_Left_Rear.h"
 497              		.file 12 "Generated_Source\\PSoC5/core_cm3.h"
 498              		.file 13 "Generated_Source\\PSoC5/PWM_Left_Rear.h"