ARM GAS  C:\Users\RYANKE~1\AppData\Local\Temp\ccKKnkIb.s 			page 1


   1              		.syntax unified
   2              		.cpu cortex-m3
   3              		.fpu softvfp
   4              		.eabi_attribute 20, 1
   5              		.eabi_attribute 21, 1
   6              		.eabi_attribute 23, 3
   7              		.eabi_attribute 24, 1
   8              		.eabi_attribute 25, 1
   9              		.eabi_attribute 26, 1
  10              		.eabi_attribute 30, 1
  11              		.eabi_attribute 34, 1
  12              		.eabi_attribute 18, 4
  13              		.thumb
  14              		.file	"lsm303.c"
  15              		.text
  16              	.Ltext0:
  17              		.cfi_sections	.debug_frame
  18              		.section	.text.LSM303_WriteByte,"ax",%progbits
  19              		.align	2
  20              		.global	LSM303_WriteByte
  21              		.thumb
  22              		.thumb_func
  23              		.type	LSM303_WriteByte, %function
  24              	LSM303_WriteByte:
  25              	.LFB64:
  26              		.file 1 "lsm303.c"
   1:lsm303.c      **** /////////////////////////////////////////////////////////////////////////////////
   2:lsm303.c      **** /////////////////////////////////////////////////////////////////////////////////
   3:lsm303.c      **** /// Copyright Chad Hensley 2017                                               ///
   4:lsm303.c      **** /// All Rights Reserved                                                       ///
   5:lsm303.c      **** /// UNPUBLISHED, LICENSED SOFTWARE.                                           ///
   6:lsm303.c      **** ///                                                                           ///
   7:lsm303.c      **** /// CONFIDENTIAL AND PROPRIETARY INFORMATION                                  ///
   8:lsm303.c      **** /// WHICH IS THE PROPERTY OF THE COPYRIGHT HOLDER                             ///
   9:lsm303.c      **** ///                                                                           ///
  10:lsm303.c      **** /// File:       lsm303.c                                                      ///
  11:lsm303.c      **** /// Function:   4DShoot Controller LSM303 Compass/Accelerometer               ///
  12:lsm303.c      **** /// Date:       30 January 2017                                               ///
  13:lsm303.c      **** /// Target:     CY8C5888LTI-LP097                                             ///
  14:lsm303.c      **** /// Software:   PSoC Creator 4.0 Update 1                                     ///
  15:lsm303.c      **** /// Author:     Matt Cauvel, Ryan Kelley                                      ///
  16:lsm303.c      **** /// Revisions:                                                                ///
  17:lsm303.c      **** ///             0.A - 01/28/2017 - File Created                               ///
  18:lsm303.c      **** ///                                                                           ///
  19:lsm303.c      **** /////////////////////////////////////////////////////////////////////////////////
  20:lsm303.c      **** /////////////////////////////////////////////////////////////////////////////////
  21:lsm303.c      **** #include "lsm303.h"                                                           ///
  22:lsm303.c      **** /////////////////////////////////////////////////////////////////////////////////
  23:lsm303.c      **** 
  24:lsm303.c      **** void LSM303_Init()
  25:lsm303.c      **** {
  26:lsm303.c      ****     // CRA_REG_M
  27:lsm303.c      ****     // Magnetometer Temp Disable, 75Hz
  28:lsm303.c      ****     LSM303_WriteByte(LSM303_MAGNETOMETER, 0x00, 0b00011100);
  29:lsm303.c      ****     
  30:lsm303.c      ****     // CRB_REG_M
  31:lsm303.c      ****     // Magnetometer Gain Control
ARM GAS  C:\Users\RYANKE~1\AppData\Local\Temp\ccKKnkIb.s 			page 2


  32:lsm303.c      ****     LSM303_WriteByte(LSM303_MAGNETOMETER, 0x01, 0b00000000);
  33:lsm303.c      ****     
  34:lsm303.c      ****     // MR_REG_M
  35:lsm303.c      ****     // Magnetometer Continuous Operation Mode
  36:lsm303.c      ****     LSM303_WriteByte(LSM303_MAGNETOMETER, 0x02, 0b00000000);
  37:lsm303.c      ****     
  38:lsm303.c      ****     // CTRL_REG1_A
  39:lsm303.c      ****     // Accelerometer 400Hz Refresh, Enable X, Y, Z Axis
  40:lsm303.c      ****     LSM303_WriteByte(LSM303_ACCELEROMETER, 0x20, 0b01110111);
  41:lsm303.c      ****     return;
  42:lsm303.c      **** }
  43:lsm303.c      **** 
  44:lsm303.c      **** void LSM303_WriteByte(uint8_t dev, uint8_t addr, uint8_t data)
  45:lsm303.c      **** {
  27              		.loc 1 45 0
  28              		.cfi_startproc
  29              		@ args = 0, pretend = 0, frame = 0
  30              		@ frame_needed = 0, uses_anonymous_args = 0
  31              	.LVL0:
  32 0000 38B5     		push	{r3, r4, r5, lr}
  33              		.cfi_def_cfa_offset 16
  34              		.cfi_offset 3, -16
  35              		.cfi_offset 4, -12
  36              		.cfi_offset 5, -8
  37              		.cfi_offset 14, -4
  38 0002 0D46     		mov	r5, r1
  39 0004 1446     		mov	r4, r2
  46:lsm303.c      ****     I2C_MasterSendStart(dev, I2C_WRITE_XFER_MODE);
  40              		.loc 1 46 0
  41 0006 0021     		movs	r1, #0
  42              	.LVL1:
  43 0008 FFF7FEFF 		bl	I2C_MasterSendStart
  44              	.LVL2:
  47:lsm303.c      ****     I2C_MasterWriteByte(addr);
  45              		.loc 1 47 0
  46 000c 2846     		mov	r0, r5
  47 000e FFF7FEFF 		bl	I2C_MasterWriteByte
  48              	.LVL3:
  48:lsm303.c      ****     I2C_MasterWriteByte(data);
  49              		.loc 1 48 0
  50 0012 2046     		mov	r0, r4
  51 0014 FFF7FEFF 		bl	I2C_MasterWriteByte
  52              	.LVL4:
  49:lsm303.c      ****     I2C_MasterSendStop();
  53              		.loc 1 49 0
  54 0018 FFF7FEFF 		bl	I2C_MasterSendStop
  55              	.LVL5:
  56 001c 38BD     		pop	{r3, r4, r5, pc}
  57              		.cfi_endproc
  58              	.LFE64:
  59              		.size	LSM303_WriteByte, .-LSM303_WriteByte
  60 001e 00BF     		.section	.text.LSM303_Init,"ax",%progbits
  61              		.align	2
  62              		.global	LSM303_Init
  63              		.thumb
  64              		.thumb_func
  65              		.type	LSM303_Init, %function
ARM GAS  C:\Users\RYANKE~1\AppData\Local\Temp\ccKKnkIb.s 			page 3


  66              	LSM303_Init:
  67              	.LFB63:
  25:lsm303.c      ****     // CRA_REG_M
  68              		.loc 1 25 0
  69              		.cfi_startproc
  70              		@ args = 0, pretend = 0, frame = 0
  71              		@ frame_needed = 0, uses_anonymous_args = 0
  72 0000 08B5     		push	{r3, lr}
  73              		.cfi_def_cfa_offset 8
  74              		.cfi_offset 3, -8
  75              		.cfi_offset 14, -4
  28:lsm303.c      ****     
  76              		.loc 1 28 0
  77 0002 1E20     		movs	r0, #30
  78 0004 0021     		movs	r1, #0
  79 0006 1C22     		movs	r2, #28
  80 0008 FFF7FEFF 		bl	LSM303_WriteByte
  81              	.LVL6:
  32:lsm303.c      ****     
  82              		.loc 1 32 0
  83 000c 1E20     		movs	r0, #30
  84 000e 0121     		movs	r1, #1
  85 0010 0022     		movs	r2, #0
  86 0012 FFF7FEFF 		bl	LSM303_WriteByte
  87              	.LVL7:
  36:lsm303.c      ****     
  88              		.loc 1 36 0
  89 0016 1E20     		movs	r0, #30
  90 0018 0221     		movs	r1, #2
  91 001a 0022     		movs	r2, #0
  92 001c FFF7FEFF 		bl	LSM303_WriteByte
  93              	.LVL8:
  40:lsm303.c      ****     return;
  94              		.loc 1 40 0
  95 0020 1920     		movs	r0, #25
  96 0022 2021     		movs	r1, #32
  97 0024 7722     		movs	r2, #119
  98 0026 FFF7FEFF 		bl	LSM303_WriteByte
  99              	.LVL9:
 100 002a 08BD     		pop	{r3, pc}
 101              		.cfi_endproc
 102              	.LFE63:
 103              		.size	LSM303_Init, .-LSM303_Init
 104              		.section	.text.LSM303_ReadByte,"ax",%progbits
 105              		.align	2
 106              		.global	LSM303_ReadByte
 107              		.thumb
 108              		.thumb_func
 109              		.type	LSM303_ReadByte, %function
 110              	LSM303_ReadByte:
 111              	.LFB65:
  50:lsm303.c      ****     return;
  51:lsm303.c      **** }
  52:lsm303.c      **** 
  53:lsm303.c      **** uint8_t LSM303_ReadByte(uint8_t dev, uint8_t addr)
  54:lsm303.c      **** {
 112              		.loc 1 54 0
ARM GAS  C:\Users\RYANKE~1\AppData\Local\Temp\ccKKnkIb.s 			page 4


 113              		.cfi_startproc
 114              		@ args = 0, pretend = 0, frame = 0
 115              		@ frame_needed = 0, uses_anonymous_args = 0
 116              	.LVL10:
 117 0000 38B5     		push	{r3, r4, r5, lr}
 118              		.cfi_def_cfa_offset 16
 119              		.cfi_offset 3, -16
 120              		.cfi_offset 4, -12
 121              		.cfi_offset 5, -8
 122              		.cfi_offset 14, -4
 123 0002 0446     		mov	r4, r0
 124 0004 0D46     		mov	r5, r1
  55:lsm303.c      ****     uint8_t data;
  56:lsm303.c      ****     I2C_MasterSendStart(dev, I2C_WRITE_XFER_MODE);
 125              		.loc 1 56 0
 126 0006 0021     		movs	r1, #0
 127              	.LVL11:
 128 0008 FFF7FEFF 		bl	I2C_MasterSendStart
 129              	.LVL12:
  57:lsm303.c      ****     I2C_MasterWriteByte(addr);
 130              		.loc 1 57 0
 131 000c 2846     		mov	r0, r5
 132 000e FFF7FEFF 		bl	I2C_MasterWriteByte
 133              	.LVL13:
  58:lsm303.c      ****     I2C_MasterSendRestart(dev, I2C_READ_XFER_MODE);
 134              		.loc 1 58 0
 135 0012 2046     		mov	r0, r4
 136 0014 0121     		movs	r1, #1
 137 0016 FFF7FEFF 		bl	I2C_MasterSendRestart
 138              	.LVL14:
  59:lsm303.c      ****     data = I2C_MasterReadByte(I2C_NAK_DATA);
 139              		.loc 1 59 0
 140 001a 0020     		movs	r0, #0
 141 001c FFF7FEFF 		bl	I2C_MasterReadByte
 142              	.LVL15:
 143 0020 0446     		mov	r4, r0
 144              	.LVL16:
  60:lsm303.c      ****     I2C_MasterSendStop();
 145              		.loc 1 60 0
 146 0022 FFF7FEFF 		bl	I2C_MasterSendStop
 147              	.LVL17:
  61:lsm303.c      ****     return data;
  62:lsm303.c      **** }
 148              		.loc 1 62 0
 149 0026 2046     		mov	r0, r4
 150 0028 38BD     		pop	{r3, r4, r5, pc}
 151              		.cfi_endproc
 152              	.LFE65:
 153              		.size	LSM303_ReadByte, .-LSM303_ReadByte
 154 002a 00BF     		.section	.text.LSM303_Refresh,"ax",%progbits
 155              		.align	2
 156              		.global	LSM303_Refresh
 157              		.thumb
 158              		.thumb_func
 159              		.type	LSM303_Refresh, %function
 160              	LSM303_Refresh:
 161              	.LFB66:
ARM GAS  C:\Users\RYANKE~1\AppData\Local\Temp\ccKKnkIb.s 			page 5


  63:lsm303.c      **** 
  64:lsm303.c      **** struct LSM303_Datagram LSM303_Refresh()
  65:lsm303.c      **** {
 162              		.loc 1 65 0
 163              		.cfi_startproc
 164              		@ args = 0, pretend = 0, frame = 64
 165              		@ frame_needed = 0, uses_anonymous_args = 0
 166              	.LVL18:
 167 0000 2DE9F047 		push	{r4, r5, r6, r7, r8, r9, r10, lr}
 168              		.cfi_def_cfa_offset 32
 169              		.cfi_offset 4, -32
 170              		.cfi_offset 5, -28
 171              		.cfi_offset 6, -24
 172              		.cfi_offset 7, -20
 173              		.cfi_offset 8, -16
 174              		.cfi_offset 9, -12
 175              		.cfi_offset 10, -8
 176              		.cfi_offset 14, -4
 177 0004 90B0     		sub	sp, sp, #64
 178              		.cfi_def_cfa_offset 96
 179 0006 8046     		mov	r8, r0
 180              	.LVL19:
  66:lsm303.c      ****     struct LSM303_Datagram working;
  67:lsm303.c      ****     struct LSM303_Datagram filter[8];
  68:lsm303.c      ****     
  69:lsm303.c      ****     int16_t xUpper, xLower;
  70:lsm303.c      ****     int16_t yUpper, yLower;
  71:lsm303.c      ****     int16_t zUpper, zLower;
  72:lsm303.c      ****     
  73:lsm303.c      ****     uint8_t index;
  74:lsm303.c      ****     for(index = 0; index < 8; index++)
 181              		.loc 1 74 0
 182 0008 0024     		movs	r4, #0
 183 000a 2DE0     		b	.L8
 184              	.LVL20:
 185              	.L9:
  75:lsm303.c      ****     {        
  76:lsm303.c      ****         xUpper = LSM303_ReadByte(LSM303_MAGNETOMETER, 0x03);
 186              		.loc 1 76 0 discriminator 3
 187 000c 1E20     		movs	r0, #30
 188 000e 0321     		movs	r1, #3
 189 0010 FFF7FEFF 		bl	LSM303_ReadByte
 190              	.LVL21:
 191 0014 8246     		mov	r10, r0
 192              	.LVL22:
  77:lsm303.c      ****         xLower = LSM303_ReadByte(LSM303_MAGNETOMETER, 0x04);
 193              		.loc 1 77 0 discriminator 3
 194 0016 1E20     		movs	r0, #30
 195 0018 0421     		movs	r1, #4
 196 001a FFF7FEFF 		bl	LSM303_ReadByte
 197              	.LVL23:
 198 001e 0746     		mov	r7, r0
 199              	.LVL24:
  78:lsm303.c      ****         zUpper = LSM303_ReadByte(LSM303_MAGNETOMETER, 0x05);
 200              		.loc 1 78 0 discriminator 3
 201 0020 1E20     		movs	r0, #30
 202 0022 0521     		movs	r1, #5
ARM GAS  C:\Users\RYANKE~1\AppData\Local\Temp\ccKKnkIb.s 			page 6


 203 0024 FFF7FEFF 		bl	LSM303_ReadByte
 204              	.LVL25:
 205 0028 8146     		mov	r9, r0
 206              	.LVL26:
  79:lsm303.c      ****         zLower = LSM303_ReadByte(LSM303_MAGNETOMETER, 0x06);
 207              		.loc 1 79 0 discriminator 3
 208 002a 1E20     		movs	r0, #30
 209 002c 0621     		movs	r1, #6
 210 002e FFF7FEFF 		bl	LSM303_ReadByte
 211              	.LVL27:
 212 0032 0546     		mov	r5, r0
 213              	.LVL28:
  80:lsm303.c      ****         yUpper = LSM303_ReadByte(LSM303_MAGNETOMETER, 0x07);
 214              		.loc 1 80 0 discriminator 3
 215 0034 1E20     		movs	r0, #30
 216 0036 0721     		movs	r1, #7
 217 0038 FFF7FEFF 		bl	LSM303_ReadByte
 218              	.LVL29:
 219 003c 0646     		mov	r6, r0
 220              	.LVL30:
  81:lsm303.c      ****         yLower = LSM303_ReadByte(LSM303_MAGNETOMETER, 0x08);
 221              		.loc 1 81 0 discriminator 3
 222 003e 1E20     		movs	r0, #30
 223 0040 0821     		movs	r1, #8
 224 0042 FFF7FEFF 		bl	LSM303_ReadByte
 225              	.LVL31:
  82:lsm303.c      ****         
  83:lsm303.c      ****         filter[index].x = (xUpper << 8) | (xLower & 0x00FF);
 226              		.loc 1 83 0 discriminator 3
 227 0046 10AB     		add	r3, sp, #64
 228 0048 03EBC403 		add	r3, r3, r4, lsl #3
 229 004c 47EA0A27 		orr	r7, r7, r10, lsl #8
 230              	.LVL32:
 231 0050 23F8407C 		strh	r7, [r3, #-64]	@ movhi
  84:lsm303.c      ****         filter[index].y = (yUpper << 8) | (yLower & 0x00FF);
 232              		.loc 1 84 0 discriminator 3
 233 0054 40EA0620 		orr	r0, r0, r6, lsl #8
 234              	.LVL33:
 235 0058 23F83E0C 		strh	r0, [r3, #-62]	@ movhi
  85:lsm303.c      ****         filter[index].z = (zUpper << 8) | (zLower & 0x00FF);
 236              		.loc 1 85 0 discriminator 3
 237 005c 45EA0925 		orr	r5, r5, r9, lsl #8
 238              	.LVL34:
 239 0060 23F83C5C 		strh	r5, [r3, #-60]	@ movhi
  74:lsm303.c      ****     {        
 240              		.loc 1 74 0 discriminator 3
 241 0064 0134     		adds	r4, r4, #1
 242              	.LVL35:
 243 0066 E4B2     		uxtb	r4, r4
 244              	.LVL36:
 245              	.L8:
  74:lsm303.c      ****     {        
 246              		.loc 1 74 0 is_stmt 0 discriminator 1
 247 0068 072C     		cmp	r4, #7
 248 006a CFD9     		bls	.L9
  86:lsm303.c      ****     }
  87:lsm303.c      ****     
ARM GAS  C:\Users\RYANKE~1\AppData\Local\Temp\ccKKnkIb.s 			page 7


  88:lsm303.c      ****     working.x = (filter[0].x + filter[1].x + filter[2].x + filter[3].x +
 249              		.loc 1 88 0 is_stmt 1
 250 006c BDF90000 		ldrsh	r0, [sp]
 251 0070 BDF90830 		ldrsh	r3, [sp, #8]
 252 0074 1844     		add	r0, r0, r3
 253 0076 BDF91030 		ldrsh	r3, [sp, #16]
 254 007a 1844     		add	r0, r0, r3
 255 007c BDF91830 		ldrsh	r3, [sp, #24]
 256 0080 1844     		add	r0, r0, r3
 257 0082 BDF92030 		ldrsh	r3, [sp, #32]
 258 0086 1844     		add	r0, r0, r3
  89:lsm303.c      ****                  filter[4].x + filter[5].x + filter[6].x + filter[7].x) >> 3;
 259              		.loc 1 89 0
 260 0088 BDF92830 		ldrsh	r3, [sp, #40]
 261 008c 1844     		add	r0, r0, r3
 262 008e BDF93030 		ldrsh	r3, [sp, #48]
 263 0092 1844     		add	r0, r0, r3
 264 0094 BDF93830 		ldrsh	r3, [sp, #56]
 265 0098 1844     		add	r0, r0, r3
  88:lsm303.c      ****                  filter[4].x + filter[5].x + filter[6].x + filter[7].x) >> 3;
 266              		.loc 1 88 0
 267 009a C0F3CF00 		ubfx	r0, r0, #3, #16
 268 009e A8F80000 		strh	r0, [r8]	@ movhi
  90:lsm303.c      ****     
  91:lsm303.c      ****     working.y = (filter[0].y + filter[1].y + filter[2].y + filter[3].y +
 269              		.loc 1 91 0
 270 00a2 BDF90210 		ldrsh	r1, [sp, #2]
 271 00a6 BDF90A30 		ldrsh	r3, [sp, #10]
 272 00aa 1944     		add	r1, r1, r3
 273 00ac BDF91230 		ldrsh	r3, [sp, #18]
 274 00b0 1944     		add	r1, r1, r3
 275 00b2 BDF91A30 		ldrsh	r3, [sp, #26]
 276 00b6 1944     		add	r1, r1, r3
 277 00b8 BDF92230 		ldrsh	r3, [sp, #34]
 278 00bc 1944     		add	r1, r1, r3
  92:lsm303.c      ****                  filter[4].y + filter[5].y + filter[6].y + filter[7].y) >> 3;
 279              		.loc 1 92 0
 280 00be BDF92A30 		ldrsh	r3, [sp, #42]
 281 00c2 1944     		add	r1, r1, r3
 282 00c4 BDF93230 		ldrsh	r3, [sp, #50]
 283 00c8 1944     		add	r1, r1, r3
 284 00ca BDF93A30 		ldrsh	r3, [sp, #58]
 285 00ce 1944     		add	r1, r1, r3
  91:lsm303.c      ****                  filter[4].y + filter[5].y + filter[6].y + filter[7].y) >> 3;
 286              		.loc 1 91 0
 287 00d0 C1F3CF01 		ubfx	r1, r1, #3, #16
 288 00d4 A8F80210 		strh	r1, [r8, #2]	@ movhi
  93:lsm303.c      ****     
  94:lsm303.c      ****     working.z = (filter[0].z + filter[1].z + filter[2].z + filter[3].z +
 289              		.loc 1 94 0
 290 00d8 BDF90420 		ldrsh	r2, [sp, #4]
 291 00dc BDF90C30 		ldrsh	r3, [sp, #12]
 292 00e0 1A44     		add	r2, r2, r3
 293 00e2 BDF91430 		ldrsh	r3, [sp, #20]
 294 00e6 1A44     		add	r2, r2, r3
 295 00e8 BDF91C30 		ldrsh	r3, [sp, #28]
 296 00ec 1A44     		add	r2, r2, r3
ARM GAS  C:\Users\RYANKE~1\AppData\Local\Temp\ccKKnkIb.s 			page 8


 297 00ee BDF92430 		ldrsh	r3, [sp, #36]
 298 00f2 1A44     		add	r2, r2, r3
  95:lsm303.c      ****                  filter[4].z + filter[5].z + filter[6].z + filter[7].z) >> 3;
 299              		.loc 1 95 0
 300 00f4 BDF92C30 		ldrsh	r3, [sp, #44]
 301 00f8 1A44     		add	r2, r2, r3
 302 00fa BDF93430 		ldrsh	r3, [sp, #52]
 303 00fe 1A44     		add	r2, r2, r3
 304 0100 BDF93C30 		ldrsh	r3, [sp, #60]
 305 0104 1344     		add	r3, r3, r2
 306 0106 DB10     		asrs	r3, r3, #3
  94:lsm303.c      ****                  filter[4].z + filter[5].z + filter[6].z + filter[7].z) >> 3;
 307              		.loc 1 94 0
 308 0108 A8F80430 		strh	r3, [r8, #4]	@ movhi
  96:lsm303.c      ****     
  97:lsm303.c      ****     working.heading = atan_Approx(working.x,working.y);
 309              		.loc 1 97 0
 310 010c 00B2     		sxth	r0, r0
 311 010e 09B2     		sxth	r1, r1
 312 0110 FFF7FEFF 		bl	atan_Approx
 313              	.LVL37:
 314 0114 A8F80600 		strh	r0, [r8, #6]	@ movhi
  98:lsm303.c      ****     
  99:lsm303.c      ****     return working;
 100:lsm303.c      **** }
 315              		.loc 1 100 0
 316 0118 4046     		mov	r0, r8
 317 011a 10B0     		add	sp, sp, #64
 318              		.cfi_def_cfa_offset 32
 319              		@ sp needed
 320 011c BDE8F087 		pop	{r4, r5, r6, r7, r8, r9, r10, pc}
 321              		.cfi_endproc
 322              	.LFE66:
 323              		.size	LSM303_Refresh, .-LSM303_Refresh
 324              		.text
 325              	.Letext0:
 326              		.file 2 "c:\\program files (x86)\\cypress\\psoc creator\\4.0\\psoc creator\\import\\gnu\\arm\\4.9.
 327              		.file 3 "c:\\program files (x86)\\cypress\\psoc creator\\4.0\\psoc creator\\import\\gnu\\arm\\4.9.
 328              		.file 4 "Generated_Source\\PSoC5/cytypes.h"
 329              		.file 5 "lsm303.h"
 330              		.file 6 "Generated_Source\\PSoC5/I2C.h"
 331              		.file 7 "Generated_Source\\PSoC5/core_cm3.h"
 332              		.file 8 "generic.h"